(lp0
(V\u043f\u043e\u043b\u044c\u0437\u0430
p1
VS
p2
V\u043f\u043e\u043b\u044c\u0437\u0430
p3
tp4
a(V\u0437\u0434\u043e\u0440\u043e\u0432\u044c\u0435
p5
g2
V\u0437\u0434\u043e\u0440\u043e\u0432\u044c\u044f
p6
tp7
a(V\u043e\u043b\u0438\u0432\u043a\u043e\u0432\u044b\u0439
p8
VA
p9
V\u043e\u043b\u0438\u0432\u043a\u043e\u0432\u043e\u0433\u043e
p10
tp11
a(V\u043c\u0430\u0441\u043b\u043e
p12
g2
V\u043c\u0430\u0441\u043b\u0430
p13
tp14
a(V\u0445\u043e\u0440\u043e\u0448\u043e
p15
VADV
p16
V\u0445\u043e\u0440\u043e\u0448\u043e
p17
tp18
a(V\u0438\u0437\u0432\u0435\u0441\u0442\u043d\u044b\u0439
p19
g9
V\u0438\u0437\u0432\u0435\u0441\u0442\u043d\u0430
p20
tp21
a(V\u0434\u0430\u0432\u043d\u0438\u0439
p22
g9
V\u0434\u0430\u0432\u043d\u0438\u0445
p23
tp24
a(V\u043f\u043e\u0440\u0430
p25
g2
V\u043f\u043e\u0440
p26
tp27
a(V\u043f\u0435\u0440\u0435\u043e\u0446\u0435\u043d\u0438\u0442\u044c
p28
VV
p29
V\u043f\u0435\u0440\u0435\u043e\u0446\u0435\u043d\u0438\u0442\u044c
p30
tp31
a(V\u0442\u0440\u0443\u0434\u043d\u043e
p32
VADV
p33
V\u0442\u0440\u0443\u0434\u043d\u043e
p34
tp35
a(V\u0438\u0437\u0432\u0435\u0441\u0442\u043d\u044b\u0439
p36
g9
V\u0438\u0437\u0432\u0435\u0441\u0442\u043d\u044b\u0439
p37
tp38
a(V\u0444\u0430\u043a\u0442
p39
g2
V\u0444\u0430\u043a\u0442
p40
tp41
a(V\u0441\u0442\u0440\u0430\u043d\u0430
p42
g2
V\u0441\u0442\u0440\u0430\u043d\u0430\u0445
p43
tp44
a(V\u0440\u0435\u0433\u0438\u043e\u043d
p45
g2
V\u0440\u0435\u0433\u0438\u043e\u043d\u0430\u0445
p46
tp47
a(V\u0447\u0435\u043b\u043e\u0432\u0435\u043a
p48
g2
V\u043b\u044e\u0434\u0438
p49
tp50
a(V\u0438\u0441\u043f\u043e\u043b\u044c\u0437\u043e\u0432\u0430\u0442\u044c
p51
g29
V\u0438\u0441\u043f\u043e\u043b\u044c\u0437\u0443\u044e\u0442
p52
tp53
a(V\u043e\u043b\u0438\u0432\u043a\u043e\u0432\u044b\u0439
p54
g9
V\u043e\u043b\u0438\u0432\u043a\u043e\u0432\u043e\u0435
p55
tp56
a(V\u043c\u0430\u0441\u043b\u043e
p57
g2
V\u043c\u0430\u0441\u043b\u043e
p58
tp59
a(V\u043f\u043e\u0432\u0441\u0435\u0434\u043d\u0435\u0432\u043d\u044b\u0439
p60
g9
V\u043f\u043e\u0432\u0441\u0435\u0434\u043d\u0435\u0432\u043d\u043e\u0439
p61
tp62
a(V\u043e\u0441\u043d\u043e\u0432\u0430
p63
g2
V\u043e\u0441\u043d\u043e\u0432\u0435
p64
tp65
a(V\u043f\u0440\u043e\u0434\u043e\u043b\u0436\u0438\u0442\u0435\u043b\u044c\u043d\u043e\u0441\u0442\u044c
p66
g2
V\u043f\u0440\u043e\u0434\u043e\u043b\u0436\u0438\u0442\u0435\u043b\u044c\u043d\u043e\u0441\u0442\u044c
p67
tp68
a(V\u0436\u0438\u0437\u043d\u044c
p69
g2
V\u0436\u0438\u0437\u043d\u0438
p70
tp71
a(V\u043a\u0430\u0447\u0435\u0441\u0442\u0432\u043e
p72
g2
V\u043a\u0430\u0447\u0435\u0441\u0442\u0432\u043e
p73
tp74
a(V\u0432\u044b\u0441\u043e\u043a\u0438\u0439
p75
g9
V\u0432\u044b\u0441\u043e\u043a\u0438
p76
tp77
a(V\u043f\u0438\u0441\u0430\u0442\u044c
p78
g29
V\u043f\u0438\u0441\u0430\u043b\u0438
p79
tp80
a(V\u0440\u0430\u043d\u043d\u0438\u0439
p81
VADV
p82
V\u0440\u0430\u043d\u044c\u0448\u0435
p83
tp84
a(V\u0441\u0442\u0430\u0442\u044c\u044f
p85
g2
V\u0441\u0442\u0430\u0442\u044c\u044f\u0445
p86
tp87
a(V\u043f\u043e\u043b\u0443\u0447\u0430\u0442\u044c
p88
g29
V\u043f\u043e\u043b\u0443\u0447\u0430\u044e\u0442
p89
tp90
a(V\u043e\u043b\u0438\u0432\u043a\u043e\u0432\u044b\u0439
p91
g9
V\u043e\u043b\u0438\u0432\u043a\u043e\u0432\u043e\u0435
p92
tp93
a(V\u043c\u0430\u0441\u043b\u043e
p94
g2
V\u043c\u0430\u0441\u043b\u043e
p95
tp96
a(V\u044d\u043a\u0441\u0442\u0440\u0430
p97
g9
V\u044d\u043a\u0441\u0442\u0440\u0430
p98
tp99
a(V\u0432\u0438\u0440\u0434\u0436\u0438\u043d
p100
g2
V\u0432\u0438\u0440\u0434\u0436\u0438\u043d
p101
tp102
a(V\u043e\u043b\u0438\u0432\u043a\u043e\u0432\u044b\u0439
p103
g9
V\u043e\u043b\u0438\u0432\u043a\u043e\u0432\u043e\u0435
p104
tp105
a(V\u043c\u0430\u0441\u043b\u043e
p106
g2
V\u043c\u0430\u0441\u043b\u043e
p107
tp108
a(V\u043f\u0440\u0435\u0434\u043e\u0442\u0432\u0440\u0430\u0449\u0430\u0442\u044c
p109
g29
V\u043f\u0440\u0435\u0434\u043e\u0442\u0432\u0440\u0430\u0449\u0430\u0435\u0442
p110
tp111
a(V\u0438\u043d\u0441\u0443\u043b\u044c\u0442
p112
g2
V\u0438\u043d\u0441\u0443\u043b\u044c\u0442
p113
tp114
a(V\u043e\u043b\u0438\u0432\u043a\u043e\u0432\u044b\u0439
p115
g9
V\u043e\u043b\u0438\u0432\u043a\u043e\u0432\u043e\u0435
p116
tp117
a(V\u043c\u0430\u0441\u043b\u043e
p118
g2
V\u043c\u0430\u0441\u043b\u043e
p119
tp120
a(V\u0437\u0430\u0449\u0438\u0449\u0430\u0442\u044c
p121
g29
V\u0437\u0430\u0449\u0438\u0449\u0430\u0435\u0442
p122
tp123
a(V\u0434\u0435\u043f\u0440\u0435\u0441\u0441\u0438\u044f
p124
g2
V\u0434\u0435\u043f\u0440\u0435\u0441\u0441\u0438\u0438
p125
tp126
a(V\u043e\u043b\u0438\u0432\u043a\u043e\u0432\u044b\u0439
p127
g9
V\u043e\u043b\u0438\u0432\u043a\u043e\u0432\u043e\u0435
p128
tp129
a(V\u043c\u0430\u0441\u043b\u043e
p130
g2
V\u043c\u0430\u0441\u043b\u043e
p131
tp132
a(V\u0431\u043e\u043b\u0435\u0437\u043d\u044c
p133
g2
V\u0431\u043e\u043b\u0435\u0437\u043d\u0438
p134
tp135
a(V\u0430\u043b\u044c\u0446\u0433\u0435\u0439\u043c\u0435\u0440
p136
g2
V\u0430\u043b\u044c\u0446\u0433\u0435\u0439\u043c\u0435\u0440\u0430
p137
tp138
a(V\u043a\u043e\u043d\u043a\u0440\u0435\u0442\u043d\u044b\u0439
p139
g9
V\u043a\u043e\u043d\u043a\u0440\u0435\u0442\u043d\u044b\u0445
p140
tp141
a(V\u0431\u0438\u043e\u043b\u043e\u0433\u0438\u0447\u0435\u0441\u043a\u0438\u0439
p142
g9
V\u0431\u0438\u043e\u043b\u043e\u0433\u0438\u0447\u0435\u0441\u043a\u0438\u0445
p143
tp144
a(V\u0444\u0438\u0437\u0438\u043e\u043b\u043e\u0433\u0438\u0447\u0435\u0441\u043a\u0438\u0439
p145
g9
V\u0444\u0438\u0437\u0438\u043e\u043b\u043e\u0433\u0438\u0447\u0435\u0441\u043a\u0438\u0445
p146
tp147
a(V\u043c\u0435\u0445\u0430\u043d\u0438\u0437\u043c
p148
g2
V\u043c\u0435\u0445\u0430\u043d\u0438\u0437\u043c\u0430\u0445
p149
tp150
a(V\u043b\u0435\u0436\u0430\u0442\u044c
p151
g29
V\u043b\u0435\u0436\u0430\u0449\u0438\u0445
p152
tp153
a(V\u043e\u0441\u043d\u043e\u0432\u0430
p154
g2
V\u043e\u0441\u043d\u043e\u0432\u0435
p155
tp156
a(V\u043f\u043e\u043b\u0435\u0437\u043d\u044b\u0439
p157
g9
V\u043f\u043e\u043b\u0435\u0437\u043d\u044b\u0445
p158
tp159
a(V\u043f\u0440\u0435\u0438\u043c\u0443\u0449\u0435\u0441\u0442\u0432\u043e
p160
g2
V\u043f\u0440\u0435\u0438\u043c\u0443\u0449\u0435\u0441\u0442\u0432
p161
tp162
a(V\u0437\u0434\u043e\u0440\u043e\u0432\u044c\u0435
p163
g2
V\u0437\u0434\u043e\u0440\u043e\u0432\u044c\u044f
p164
tp165
a(V\u043e\u043b\u0438\u0432\u043a\u043e\u0432\u044b\u0439
p166
g9
V\u043e\u043b\u0438\u0432\u043a\u043e\u0432\u043e\u0433\u043e
p167
tp168
a(V\u043c\u0430\u0441\u043b\u043e
p169
g2
V\u043c\u0430\u0441\u043b\u0430
p170
tp171
a(V\u044d\u043a\u0441\u0442\u0440\u0430
p172
g9
V\u044d\u043a\u0441\u0442\u0440\u0430
p173
tp174
a(V\u0432\u0438\u0440\u0434\u0436\u0438\u043d
p175
g2
V\u0432\u0438\u0440\u0434\u0436\u0438\u043d
p176
tp177
a(V\u0438\u0437\u0432\u0435\u0441\u0442\u043d\u043e
p178
VADV
p179
V\u0438\u0437\u0432\u0435\u0441\u0442\u043d\u043e
p180
tp181
a(V\u043c\u043d\u043e\u0433\u043e
p182
VADV
p183
V\u043c\u043d\u043e\u0433\u043e
p184
tp185
a(V\u043d\u043e\u0432\u044b\u0439
p186
g9
V\u043d\u043e\u0432\u043e\u0435
p187
tp188
a(V\u0438\u0441\u0441\u043b\u0435\u0434\u043e\u0432\u0430\u043d\u0438\u0435
p189
g2
V\u0438\u0441\u0441\u043b\u0435\u0434\u043e\u0432\u0430\u043d\u0438\u0435
p190
tp191
a(V\u043f\u043e\u043a\u0430\u0437\u044b\u0432\u0430\u0442\u044c
p192
g29
V\u043f\u043e\u043a\u0430\u0437\u044b\u0432\u0430\u0435\u0442
p193
tp194
a(V\u0441\u043e\u0435\u0434\u0438\u043d\u0435\u043d\u0438\u0435
p195
g2
V\u0441\u043e\u0435\u0434\u0438\u043d\u0435\u043d\u0438\u0435
p196
tp197
a(V\u043e\u0431\u043d\u0430\u0440\u0443\u0436\u0438\u0442\u044c
p198
g29
V\u043e\u0431\u043d\u0430\u0440\u0443\u0436\u0435\u043d\u043d\u043e\u0435
p199
tp200
a(V\u043e\u043b\u0438\u0432\u043a\u043e\u0432\u044b\u0439
p201
g9
V\u043e\u043b\u0438\u0432\u043a\u043e\u0432\u043e\u043c
p202
tp203
a(V\u043c\u0430\u0441\u043b\u043e
p204
g2
V\u043c\u0430\u0441\u043b\u0435
p205
tp206
a(V\u0445\u043e\u043b\u043e\u0434\u043d\u044b\u0439
p207
g9
V\u0445\u043e\u043b\u043e\u0434\u043d\u043e\u0433\u043e
p208
tp209
a(V\u043e\u0434\u0438\u043d
p210
g9
V\u043f\u0435\u0440\u0432\u043e\u0433\u043e
p211
tp212
a(V\u043e\u0442\u0436\u0438\u043c
p213
g2
V\u043e\u0442\u0436\u0438\u043c\u0430
p214
tp215
a(V\u043e\u0431\u0440\u0430\u0442\u0438\u0442\u044c
p216
g29
V\u043e\u0431\u0440\u0430\u0442\u0438\u0442\u044c
p217
tp218
a(V\u0432\u0441\u043f\u044f\u0442\u044c
p219
VADV
p220
V\u0432\u0441\u043f\u044f\u0442\u044c
p221
tp222
a(V\u043d\u0435\u0431\u043b\u0430\u0433\u043e\u043f\u0440\u0438\u044f\u0442\u043d\u044b\u0439
p223
g9
V\u043d\u0435\u0431\u043b\u0430\u0433\u043e\u043f\u0440\u0438\u044f\u0442\u043d\u044b\u0435
p224
tp225
a(V\u043f\u043e\u0441\u043b\u0435\u0434\u0441\u0442\u0432\u0438\u0435
p226
g2
V\u043f\u043e\u0441\u043b\u0435\u0434\u0441\u0442\u0432\u0438\u044f
p227
tp228
a(V\u0434\u0438\u0435\u0442\u0430
p229
g2
V\u0434\u0438\u0435\u0442\u044b
p230
tp231
a(V\u0432\u044b\u0441\u043e\u043a\u0438\u0439
p232
g9
V\u0432\u044b\u0441\u043e\u043a\u0438\u043c
p233
tp234
a(V\u0441\u043e\u0434\u0435\u0440\u0436\u0430\u043d\u0438\u0435
p235
g2
V\u0441\u043e\u0434\u0435\u0440\u0436\u0430\u043d\u0438\u0435\u043c
p236
tp237
a(V\u0436\u0438\u0440
p238
g2
V\u0436\u0438\u0440\u043e\u0432
p239
tp240
a(V\u0433\u0440\u0443\u043f\u043f\u0430
p241
g2
V\u0433\u0440\u0443\u043f\u043f\u0430
p242
tp243
a(V\u0438\u0441\u0441\u043b\u0435\u0434\u043e\u0432\u0430\u0442\u0435\u043b\u044c
p244
g2
V\u0438\u0441\u0441\u043b\u0435\u0434\u043e\u0432\u0430\u0442\u0435\u043b\u0435\u0439
p245
tp246
a(V\u0443\u043d\u0438\u0432\u0435\u0440\u0441\u0438\u0442\u0435\u0442
p247
g2
V\u0443\u043d\u0438\u0432\u0435\u0440\u0441\u0438\u0442\u0435\u0442\u0430
p248
tp249
a(V\u0447\u0438\u043b\u0438
p250
g2
V\u0447\u0438\u043b\u0438
p251
tp252
a(V\u044e\u0436\u043d\u044b\u0439
p253
g9
V\u044e\u0436\u043d\u043e\u0439
p254
tp255
a(V\u0430\u043c\u0435\u0440\u0438\u043a\u0430
p256
g2
V\u0430\u043c\u0435\u0440\u0438\u043a\u0435
p257
tp258
a(V\u0432\u043e\u0437\u0433\u043b\u0430\u0432\u043b\u044f\u0442\u044c
p259
g29
V\u0432\u043e\u0437\u0433\u043b\u0430\u0432\u043b\u044f\u0435\u043c\u0430\u044f
p260
tp261
a(V\u0434\u0440\u043e\u043c
p262
g2
V\u0434\u0440\u043e\u043c
p263
tp264
a(V\u0440\u043e\u0434\u0440\u0438\u0433\u043e
p265
g2
V\u0440\u043e\u0434\u0440\u0438\u0433\u043e
p266
tp267
a(V\u0432\u0430\u043b\u0435\u043d\u0441\u0443\u044d\u043b\u0430
p268
g2
V\u0432\u0430\u043b\u0435\u043d\u0441\u0443\u044d\u043b\u043e\u0439
p269
tp270
a(V\u0438\u0437\u0443\u0447\u0438\u0442\u044c
p271
g29
V\u0438\u0437\u0443\u0447\u0438\u043b\u0430
p272
tp273
a(V\u0432\u043b\u0438\u044f\u043d\u0438\u0435
p274
g2
V\u0432\u043b\u0438\u044f\u043d\u0438\u0435
p275
tp276
a(V\u0441\u043e\u0435\u0434\u0438\u043d\u0435\u043d\u0438\u0435
p277
g2
V\u0441\u043e\u0435\u0434\u0438\u043d\u0435\u043d\u0438\u044f
p278
tp279
a(V\u0441\u043e\u0434\u0435\u0440\u0436\u0430\u0442\u044c\u0441\u044f
p280
g29
V\u0441\u043e\u0434\u0435\u0440\u0436\u0430\u0449\u0435\u0433\u043e\u0441\u044f
p281
tp282
a(V\u043e\u043b\u0438\u0432\u043a\u043e\u0432\u044b\u0439
p283
g9
V\u043e\u043b\u0438\u0432\u043a\u043e\u0432\u043e\u043c
p284
tp285
a(V\u043c\u0430\u0441\u043b\u043e
p286
g2
V\u043c\u0430\u0441\u043b\u0435
p287
tp288
a(V\u0437\u0434\u043e\u0440\u043e\u0432\u044c\u0435
p289
g2
V\u0437\u0434\u043e\u0440\u043e\u0432\u044c\u0435
p290
tp291
a(V\u043c\u044b\u0448\u0435\u0439
p292
g2
V\u043c\u044b\u0448\u0435\u0439
p293
tp294
a(V\u0441\u043e\u0435\u0434\u0438\u043d\u0435\u043d\u0438\u0435
p295
g2
V\u0441\u043e\u0435\u0434\u0438\u043d\u0435\u043d\u0438\u0435
p296
tp297
a(V\u043d\u0430\u0437\u044b\u0432\u0430\u0442\u044c\u0441\u044f
p298
g29
V\u043d\u0430\u0437\u044b\u0432\u0430\u0435\u0442\u0441\u044f
p299
tp300
a(V\u0433\u0438\u0434\u0440\u043e\u043a\u0441\u0438\u0442\u0438\u0440\u043e\u0437\u043e\u043b
p301
g2
V\u0433\u0438\u0434\u0440\u043e\u043a\u0441\u0438\u0442\u0438\u0440\u043e\u0437\u043e\u043b\u043e\u043c
p302
tp303
a(V\u043e\u0431\u044a\u044f\u0441\u043d\u044f\u0442\u044c
p304
g29
V\u043e\u0431\u044a\u044f\u0441\u043d\u044f\u044e\u0442
p305
tp306
a(V\u0443\u0447\u0451\u043d\u044b\u0439
p307
g2
V\u0443\u0447\u0435\u043d\u044b\u0435
p308
tp309
a(V\u043f\u0440\u0438\u0440\u043e\u0434\u043d\u044b\u0439
p310
g9
V\u043f\u0440\u0438\u0440\u043e\u0434\u043d\u044b\u0439
p311
tp312
a(V\u043f\u043e\u043b\u0438\u0444\u0435\u043d\u043e\u043b
p313
g2
V\u043f\u043e\u043b\u0438\u0444\u0435\u043d\u043e\u043b
p314
tp315
a(V\u0441\u0438\u043b\u044c\u043d\u044b\u0439
p316
g9
V\u0441\u0438\u043b\u044c\u043d\u044b\u043c\u0438
p317
tp318
a(V\u0430\u043d\u0442\u0438\u043e\u043a\u0441\u0438\u0434\u0430\u043d\u0442\u043d\u044b\u0439
p319
g9
V\u0430\u043d\u0442\u0438\u043e\u043a\u0441\u0438\u0434\u0430\u043d\u0442\u043d\u044b\u043c\u0438
p320
tp321
a(V\u0441\u0432\u043e\u0439\u0441\u0442\u0432\u043e
p322
g2
V\u0441\u0432\u043e\u0439\u0441\u0442\u0432\u0430\u043c\u0438
p323
tp324
a(V\u0441\u043f\u043e\u0441\u043e\u0431\u043d\u044b\u0439
p325
g9
V\u0441\u043f\u043e\u0441\u043e\u0431\u043d\u044b\u0439
p326
tp327
a(V\u043f\u0440\u0435\u0434\u043e\u0442\u0432\u0440\u0430\u0449\u0430\u0442\u044c
p328
g29
V\u043f\u0440\u0435\u0434\u043e\u0442\u0432\u0440\u0430\u0449\u0430\u0442\u044c
p329
tp330
a(V\u0440\u043e\u0441\u0442
p331
g2
V\u0440\u043e\u0441\u0442
p332
tp333
a(V\u0440\u0430\u043a\u043e\u0432\u044b\u0439
p334
g9
V\u0440\u0430\u043a\u043e\u0432\u044b\u0445
p335
tp336
a(V\u043a\u043b\u0435\u0442\u043a\u0430
p337
g2
V\u043a\u043b\u0435\u0442\u043e\u043a
p338
tp339
a(V\u0441\u0432\u043e\u0439\u0441\u0442\u0432\u043e
p340
g2
V\u0441\u0432\u043e\u0439\u0441\u0442\u0432\u0430
p341
tp342
a(V\u043f\u0440\u0438\u0447\u0438\u043d\u0430
p343
g2
V\u043f\u0440\u0438\u0447\u0438\u043d\u043e\u0439
p344
tp345
a(V\u043c\u043d\u043e\u0433\u0438\u0439
p346
g9
V\u043c\u043d\u043e\u0433\u0438\u0445
p347
tp348
a(V\u043f\u0440\u0435\u0438\u043c\u0443\u0449\u0435\u0441\u0442\u0432\u043e
p349
g2
V\u043f\u0440\u0435\u0438\u043c\u0443\u0449\u0435\u0441\u0442\u0432
p350
tp351
a(V\u0437\u0434\u043e\u0440\u043e\u0432\u044c\u0435
p352
g2
V\u0437\u0434\u043e\u0440\u043e\u0432\u044c\u044f
p353
tp354
a(V\u043e\u043b\u0438\u0432\u043a\u043e\u0432\u044b\u0439
p355
g9
V\u043e\u043b\u0438\u0432\u043a\u043e\u0432\u043e\u0433\u043e
p356
tp357
a(V\u043c\u0430\u0441\u043b\u043e
p358
g2
V\u043c\u0430\u0441\u043b\u0430
p359
tp360
a(V\u043c\u044b\u0448\u044c
p361
g2
V\u043c\u044b\u0448\u0438
p362
tp363
a(V\u043a\u043e\u0440\u043c\u0438\u0442\u044c
p364
g29
V\u043a\u043e\u0440\u043c\u0438\u043b\u0438
p365
tp366
a(V\u0434\u0438\u0435\u0442\u0430
p367
g2
V\u0434\u0438\u0435\u0442\u043e\u0439
p368
tp369
a(V\u0432\u044b\u0441\u043e\u043a\u0438\u0439
p370
g9
V\u0432\u044b\u0441\u043e\u043a\u0438\u043c
p371
tp372
a(V\u0441\u043e\u0434\u0435\u0440\u0436\u0430\u043d\u0438\u0435
p373
g2
V\u0441\u043e\u0434\u0435\u0440\u0436\u0430\u043d\u0438\u0435\u043c
p374
tp375
a(V\u0436\u0438\u0440
p376
g2
V\u0436\u0438\u0440\u043e\u0432
p377
tp378
a(V\u0438\u043c\u0435\u0442\u044c
p379
g29
V\u0438\u043c\u0435\u043b\u0438
p380
tp381
a(V\u043f\u0440\u0438\u0437\u043d\u0430\u043a
p382
g2
V\u043f\u0440\u0438\u0437\u043d\u0430\u043a\u0438
p383
tp384
a(V\u043d\u0435\u0430\u043b\u043a\u043e\u0433\u043e\u043b\u044c\u043d\u044b\u0439
p385
g9
V\u043d\u0435\u0430\u043b\u043a\u043e\u0433\u043e\u043b\u044c\u043d\u043e\u0433\u043e
p386
tp387
a(V\u0437\u0430\u0431\u043e\u043b\u0435\u0432\u0430\u043d\u0438\u0435
p388
g2
V\u0437\u0430\u0431\u043e\u043b\u0435\u0432\u0430\u043d\u0438\u044f
p389
tp390
a(V\u043f\u0435\u0447\u0435\u043d\u044c
p391
g2
V\u043f\u0435\u0447\u0435\u043d\u0438
p392
tp393
a(V\u043f\u0440\u0438\u0432\u043e\u0434\u0438\u0442\u044c
p394
g29
V\u043f\u0440\u0438\u0432\u043e\u0434\u0438\u0442
p395
tp396
a(V\u0437\u0430\u043c\u0435\u0442\u043d\u044b\u0439
p397
g9
V\u0437\u0430\u043c\u0435\u0442\u043d\u043e\u043c\u0443
p398
tp399
a(V\u0441\u043d\u0438\u0436\u0435\u043d\u0438\u0435
p400
g2
V\u0441\u043d\u0438\u0436\u0435\u043d\u0438\u044e
p401
tp402
a(V\u0444\u0435\u0440\u043c\u0435\u043d\u0442\u0430\u0442\u0438\u0432\u043d\u044b\u0439
p403
g9
V\u0444\u0435\u0440\u043c\u0435\u043d\u0442\u0430\u0442\u0438\u0432\u043d\u043e\u0439
p404
tp405
a(V\u0430\u043a\u0442\u0438\u0432\u043d\u043e\u0441\u0442\u044c
p406
g2
V\u0430\u043a\u0442\u0438\u0432\u043d\u043e\u0441\u0442\u0438
p407
tp408
a(V\u043f\u0435\u0447\u0435\u043d\u044c
p409
g2
V\u043f\u0435\u0447\u0435\u043d\u0438
p410
tp411
a(V\u043e\u0442\u0440\u0438\u0446\u0430\u0442\u0435\u043b\u044c\u043d\u044b\u0439
p412
g9
V\u043e\u0442\u0440\u0438\u0446\u0430\u0442\u0435\u043b\u044c\u043d\u043e\u043c\u0443
p413
tp414
a(V\u0432\u043b\u0438\u044f\u043d\u0438\u0435
p415
g2
V\u0432\u043b\u0438\u044f\u043d\u0438\u044e
p416
tp417
a(V\u0441\u043e\u0441\u0442\u0430\u0432
p418
g2
V\u0441\u043e\u0441\u0442\u0430\u0432
p419
tp420
a(V\u0436\u0438\u0440\u043d\u044b\u0439
p421
g9
V\u0436\u0438\u0440\u043d\u044b\u0445
p422
tp423
a(V\u043a\u0438\u0441\u043b\u043e\u0442\u0430
p424
g2
V\u043a\u0438\u0441\u043b\u043e\u0442
p425
tp426
a(V\u043e\u0440\u0433\u0430\u043d
p427
g2
V\u043e\u0440\u0433\u0430\u043d\u0430\u0445
p428
tp429
a(V\u043f\u0435\u0447\u0435\u043d\u044c
p430
g2
V\u043f\u0435\u0447\u0435\u043d\u044c
p431
tp432
a(V\u043f\u0440\u043e\u044f\u0432\u043b\u044f\u0442\u044c
p433
g29
V\u043f\u0440\u043e\u044f\u0432\u043b\u044f\u0435\u0442
p434
tp435
a(V\u043f\u0440\u0438\u0437\u043d\u0430\u043a
p436
g2
V\u043f\u0440\u0438\u0437\u043d\u0430\u043a\u0438
p437
tp438
a(V\u043f\u043e\u0432\u044b\u0448\u0435\u043d\u043d\u044b\u0439
p439
g9
V\u043f\u043e\u0432\u044b\u0448\u0435\u043d\u043d\u043e\u0433\u043e
p440
tp441
a(V\u043e\u043a\u0438\u0441\u043b\u0438\u0442\u0435\u043b\u044c\u043d\u044b\u0439
p442
g9
V\u043e\u043a\u0438\u0441\u043b\u0438\u0442\u0435\u043b\u044c\u043d\u043e\u0433\u043e
p443
tp444
a(V\u0441\u0442\u0440\u0435\u0441\u0441
p445
g2
V\u0441\u0442\u0440\u0435\u0441\u0441\u0430
p446
tp447
a(V\u0437\u043d\u0430\u0442\u044c
p448
g29
V\u0437\u043d\u0430\u0435\u043c
p449
tp450
a(V\u0441\u0432\u044f\u0437\u0430\u0442\u044c
p451
g29
V\u0441\u0432\u044f\u0437\u0430\u043d
p452
tp453
a(V\u043e\u0436\u0438\u0440\u0435\u043d\u0438\u0435
p454
g2
V\u043e\u0436\u0438\u0440\u0435\u043d\u0438\u0435\u043c
p455
tp456
a(V\u043f\u0435\u0447\u0435\u043d\u044c
p457
g2
V\u043f\u0435\u0447\u0435\u043d\u0438
p458
tp459
a(V\u0438\u043d\u0442\u0440\u0438\u0433\u043e\u0432\u0430\u0442\u044c
p460
g29
V\u0438\u043d\u0442\u0440\u0438\u0433\u0443\u0435\u0442
p461
tp462
a(V\u0444\u0430\u043a\u0442
p463
g2
V\u0444\u0430\u043a\u0442
p464
tp465
a(V\u0434\u043e\u0431\u0430\u0432\u043b\u0435\u043d\u0438\u0435
p466
g2
V\u0434\u043e\u0431\u0430\u0432\u043b\u0435\u043d\u0438\u0435
p467
tp468
a(V\u0440\u0430\u0446\u0438\u043e\u043d
p469
g2
V\u0440\u0430\u0446\u0438\u043e\u043d
p470
tp471
a(V\u043e\u0442\u043d\u043e\u0441\u0438\u0442\u0435\u043b\u044c\u043d\u043e
p472
VPR
p473
V\u043e\u0442\u043d\u043e\u0441\u0438\u0442\u0435\u043b\u044c\u043d\u043e
p474
tp475
a(V\u043d\u0438\u0437\u043a\u0438\u0439
p476
g9
V\u043d\u0438\u0437\u043a\u043e\u0439
p477
tp478
a(V\u0434\u043e\u0437\u0430
p479
g2
V\u0434\u043e\u0437\u044b
p480
tp481
a(V\u0433\u0438\u0434\u0440\u043e\u043a\u0441\u0438\u0442\u0438\u0440\u043e\u0437\u043e\u043b
p482
g2
V\u0433\u0438\u0434\u0440\u043e\u043a\u0441\u0438\u0442\u0438\u0440\u043e\u0437\u043e\u043b\u0430
p483
tp484
a(V\u0441\u043f\u043e\u0441\u043e\u0431\u0441\u0442\u0432\u043e\u0432\u0430\u0442\u044c
p485
g29
V\u0441\u043f\u043e\u0441\u043e\u0431\u0441\u0442\u0432\u043e\u0432\u0430\u043b\u043e
p486
tp487
a(V\u0443\u043c\u0435\u043d\u044c\u0448\u0435\u043d\u0438\u0435
p488
g2
V\u0443\u043c\u0435\u043d\u044c\u0448\u0435\u043d\u0438\u044e
p489
tp490
a(V\u043f\u0440\u0438\u0437\u043d\u0430\u043a
p491
g2
V\u043f\u0440\u0438\u0437\u043d\u0430\u043a\u043e\u0432
p492
tp493
a(V\u043e\u0436\u0438\u0440\u0435\u043d\u0438\u0435
p494
g2
V\u043e\u0436\u0438\u0440\u0435\u043d\u0438\u044f
p495
tp496
a(V\u043f\u0435\u0447\u0435\u043d\u044c
p497
g2
V\u043f\u0435\u0447\u0435\u043d\u0438
p498
tp499
a(V\u0441\u043d\u0438\u0436\u0435\u043d\u0438\u0435
p500
g2
V\u0441\u043d\u0438\u0436\u0435\u043d\u0438\u044e
p501
tp502
a(V\u043d\u0435\u0433\u0430\u0442\u0438\u0432\u043d\u044b\u0439
p503
g9
V\u043d\u0435\u0433\u0430\u0442\u0438\u0432\u043d\u044b\u0445
p504
tp505
a(V\u044d\u0444\u0444\u0435\u043a\u0442
p506
g2
V\u044d\u0444\u0444\u0435\u043a\u0442\u043e\u0432
p507
tp508
a(V\u043d\u0430\u0431\u043b\u044e\u0434\u0430\u0442\u044c
p509
g29
V\u043d\u0430\u0431\u043b\u044e\u0434\u0430\u0435\u043c\u044b\u0445
p510
tp511
a(V\u043e\u0440\u0433\u0430\u043d
p512
g2
V\u043e\u0440\u0433\u0430\u043d\u0430\u0445
p513
tp514
a(V\u0440\u0435\u0437\u0443\u043b\u044c\u0442\u0430\u0442
p515
g2
V\u0440\u0435\u0437\u0443\u043b\u044c\u0442\u0430\u0442\u044b
p516
tp517
a(V\u043e\u043f\u0443\u0431\u043b\u0438\u043a\u043e\u0432\u0430\u0442\u044c
p518
g29
V\u043e\u043f\u0443\u0431\u043b\u0438\u043a\u043e\u0432\u0430\u043d\u044b
p519
tp520
a(V\u0436\u0443\u0440\u043d\u0430\u043b
p521
g2
V\u0436\u0443\u0440\u043d\u0430\u043b\u0435
p522
tp523
a(Vlipids
p524
VNID
p525
Vlipids
p526
tp527
a(Vin
p528
VNID
p529
Vin
p530
tp531
a(Vhealth
p532
VNID
p533
Vhealth
p534
tp535
a(Vand
p536
VNID
p537
Vand
p538
tp539
a(Vdisease
p540
VNID
p541
Vdisease
p542
tp543
a(V\u043e\u043b\u0438\u0432\u043a\u043e\u0432\u044b\u0439
p544
g9
V\u043e\u043b\u0438\u0432\u043a\u043e\u0432\u043e\u0435
p545
tp546
a(V\u043c\u0430\u0441\u043b\u043e
p547
g2
V\u043c\u0430\u0441\u043b\u043e
p548
tp549
a(V\u0441\u043f\u0430\u0441\u0430\u0442\u044c
p550
g29
V\u0441\u043f\u0430\u0441\u0430\u0435\u0442
p551
tp552
a(V\u043e\u0436\u0438\u0440\u0435\u043d\u0438\u0435
p553
g2
V\u043e\u0436\u0438\u0440\u0435\u043d\u0438\u044f
p554
tp555
a(V\u043f\u0435\u0447\u0435\u043d\u044c
p556
g2
V\u043f\u0435\u0447\u0435\u043d\u0438
p557
tp558
a.