(lp0
V\u0438\u044e\u043b\u044c
p1
aV\u0430\u0432\u0433\u0443\u0441\u0442
p2
aV\u0430\u0432\u0433\u0443\u0441\u0442\u0430
p3
aV\u043c\u0430\u0440\u0442
p4
aV\u0438\u044e\u043d\u044c
p5
aV\u043e\u043a\u0442\u044f\u0431\u0440\u044c
p6
aV\u043c\u0430\u044f\u043c
p7
aV\u043c\u0430\u0439
p8
aV\u0441\u0435\u043d\u0442\u044f\u0431\u0440\u044c
p9
aV\u043d\u043e\u044f\u0431\u0440\u044c
p10
aV\u043c\u0430\u044f
p11
aV\u043c\u0430\u044e
p12
aV\u0433\u043e\u0434
p13
aV\u043c\u0430\u0440\u0442\u0430
p14
aV\u043c\u0430\u044f\u0445
p15
aV\u043c\u0435\u0441\u044f\u0446
p16
aV\u043c\u0430\u0435\u0432
p17
aV\u043c\u0430\u044f\u043c\u0438
p18
aV\u0434\u0435\u043a\u0430\u0431\u0440\u044c
p19
aV\u043c\u0430\u044f\u0442\u044c
p20
aV\u044f\u043d\u0432\u0430\u0440\u044c
p21
aV\u0430\u043f\u0440\u0435\u043b\u044c
p22
aV\u0444\u0435\u0432\u0440\u0430\u043b\u044c
p23
aV\u043c\u0430\u0440\u0442\u0430\u043c
p24
a.