(lp0
V\u043c\u0435\u0441\u044f\u0446
p1
aV\u043c\u0435\u0441\u044f\u0446\u0430
p2
aV\u043c\u0435\u0441\u044f\u0446\u0443
p3
aV\u043c\u0435\u0441\u044f\u0446
p4
aV\u043c\u0435\u0441\u044f\u0446\u0435\u043c
p5
aV\u043c\u0435\u0441\u044f\u0446\u0435
p6
aV\u043c\u0435\u0441\u044f\u0446\u044b
p7
aV\u043c\u0435\u0441\u044f\u0446\u0435\u0432
p8
aV\u043c\u0435\u0441\u044f\u0446\u0430\u043c
p9
aV\u043c\u0435\u0441\u044f\u0446\u044b
p10
aV\u043c\u0435\u0441\u044f\u0446\u0430\u043c\u0438
p11
aV\u043c\u0435\u0441\u044f\u0446\u0430\u0445
p12
aV\u0433\u043e\u0434
p13
aV\u0433\u043e\u0434\u0430
p14
aV\u0433\u043e\u0434\u0443
p15
aV\u0433\u043e\u0434
p16
aV\u0433\u043e\u0434\u043e\u043c
p17
aV\u0433\u043e\u0434\u0443
p18
aV\u0433\u043e\u0434\u0430
p19
aV\u043b\u0435\u0442
p20
aV\u0433\u043e\u0434\u0430\u043c
p21
aV\u0433\u043e\u0434\u0430
p22
aV\u0433\u043e\u0434\u0430\u043c\u0438
p23
aV\u0433\u043e\u0434\u0430\u0445
p24
aV\u044f\u043d\u0432\u0430\u0440\u044c
p25
aV\u044f\u043d\u0432\u0430\u0440\u044f
p26
aV\u044f\u043d\u0432\u0430\u0440\u044e
p27
aV\u044f\u043d\u0432\u0430\u0440\u044c
p28
aV\u044f\u043d\u0432\u0430\u0440\u0451\u043c
p29
aV\u044f\u043d\u0432\u0430\u0440\u0435
p30
aV\u044f\u043d\u0432\u0430\u0440\u0438
p31
aV\u044f\u043d\u0432\u0430\u0440\u0435\u0439
p32
aV\u044f\u043d\u0432\u0430\u0440\u044f\u043c
p33
aV\u044f\u043d\u0432\u0430\u0440\u0438
p34
aV\u044f\u043d\u0432\u0430\u0440\u044f\u043c\u0438
p35
aV\u044f\u043d\u0432\u0430\u0440\u044f\u0445
p36
aV\u0444\u0435\u0432\u0440\u0430\u043b\u044c
p37
aV\u0444\u0435\u0432\u0440\u0430\u043b\u044f
p38
aV\u0444\u0435\u0432\u0440\u0430\u043b\u044e
p39
aV\u0444\u0435\u0432\u0440\u0430\u043b\u044c
p40
aV\u0444\u0435\u0432\u0440\u0430\u043b\u0451\u043c
p41
aV\u0444\u0435\u0432\u0440\u0430\u043b\u0435
p42
aV\u0444\u0435\u0432\u0440\u0430\u043b\u0438
p43
aV\u0444\u0435\u0432\u0440\u0430\u043b\u0435\u0439
p44
aV\u0444\u0435\u0432\u0440\u0430\u043b\u044f\u043c
p45
aV\u0444\u0435\u0432\u0440\u0430\u043b\u0438
p46
aV\u0444\u0435\u0432\u0440\u0430\u043b\u044f\u043c\u0438
p47
aV\u0444\u0435\u0432\u0440\u0430\u043b\u044f\u0445
p48
aV\u043c\u0430\u0440\u0442
p49
aV\u043c\u0430\u0440\u0442\u0430
p50
aV\u043c\u0430\u0440\u0442\u0443
p51
aV\u043c\u0430\u0440\u0442
p52
aV\u043c\u0430\u0440\u0442\u043e\u043c
p53
aV\u043c\u0430\u0440\u0442\u0435
p54
aV\u043c\u0430\u0440\u0442\u044b
p55
aV\u043c\u0430\u0440\u0442\u043e\u0432
p56
aV\u043c\u0430\u0440\u0442\u0430\u043c
p57
aV\u043c\u0430\u0440\u0442\u044b
p58
aV\u043c\u0430\u0440\u0442\u0430\u043c\u0438
p59
aV\u043c\u0430\u0440\u0442\u0430\u0445
p60
aV\u0430\u043f\u0440\u0435\u043b\u044c
p61
aV\u0430\u043f\u0440\u0435\u043b\u044f
p62
aV\u0430\u043f\u0440\u0435\u043b\u044e
p63
aV\u0430\u043f\u0440\u0435\u043b\u044c
p64
aV\u0430\u043f\u0440\u0435\u043b\u0435\u043c
p65
aV\u0430\u043f\u0440\u0435\u043b\u0435
p66
aV\u0430\u043f\u0440\u0435\u043b\u0438
p67
aV\u0430\u043f\u0440\u0435\u043b\u0435\u0439
p68
aV\u0430\u043f\u0440\u0435\u043b\u044f\u043c
p69
aV\u0430\u043f\u0440\u0435\u043b\u0438
p70
aV\u0430\u043f\u0440\u0435\u043b\u044f\u043c\u0438
p71
aV\u0430\u043f\u0440\u0435\u043b\u044f\u0445
p72
aV\u043c\u0430\u0439
p73
aV\u043c\u0430\u044f
p74
aV\u043c\u0430\u044e
p75
aV\u043c\u0430\u0439
p76
aV\u043c\u0430\u0435\u043c
p77
aV\u043c\u0430\u0435
p78
aV\u043c\u0430\u0438
p79
aV\u043c\u0430\u0435\u0432
p80
aV\u043c\u0430\u044f\u043c
p81
aV\u043c\u0430\u0438
p82
aV\u043c\u0430\u044f\u043c\u0438
p83
aV\u043c\u0430\u044f\u0445
p84
aV\u0438\u044e\u043d\u044c
p85
aV\u0438\u044e\u043d\u044f
p86
aV\u0438\u044e\u043d\u044e
p87
aV\u0438\u044e\u043d\u044c
p88
aV\u0438\u044e\u043d\u0435\u043c
p89
aV\u0438\u044e\u043d\u0435
p90
aV\u0438\u044e\u043d\u0438
p91
aV\u0438\u044e\u043d\u0435\u0439
p92
aV\u0438\u044e\u043d\u044f\u043c
p93
aV\u0438\u044e\u043d\u0438
p94
aV\u0438\u044e\u043d\u044f\u043c\u0438
p95
aV\u0438\u044e\u043d\u044f\u0445
p96
aV\u0438\u044e\u043b\u044c
p97
aV\u0438\u044e\u043b\u044f
p98
aV\u0438\u044e\u043b\u044e
p99
aV\u0438\u044e\u043b\u044c
p100
aV\u0438\u044e\u043b\u0435\u043c
p101
aV\u0438\u044e\u043b\u0435
p102
aV\u0438\u044e\u043b\u0438
p103
aV\u0438\u044e\u043b\u0435\u0439
p104
aV\u0438\u044e\u043b\u044f\u043c
p105
aV\u0438\u044e\u043b\u0438
p106
aV\u0438\u044e\u043b\u044f\u043c\u0438
p107
aV\u0438\u044e\u043b\u044f\u0445
p108
aV\u0430\u0432\u0433\u0443\u0441\u0442
p109
aV\u0430\u0432\u0433\u0443\u0441\u0442\u0430
p110
aV\u0430\u0432\u0433\u0443\u0441\u0442\u0443
p111
aV\u0430\u0432\u0433\u0443\u0441\u0442
p112
aV\u0430\u0432\u0433\u0443\u0441\u0442\u043e\u043c
p113
aV\u0430\u0432\u0433\u0443\u0441\u0442\u0435
p114
aV\u0430\u0432\u0433\u0443\u0441\u0442\u044b
p115
aV\u0430\u0432\u0433\u0443\u0441\u0442\u043e\u0432
p116
aV\u0430\u0432\u0433\u0443\u0441\u0442\u0430\u043c
p117
aV\u0430\u0432\u0433\u0443\u0441\u0442\u044b
p118
aV\u0430\u0432\u0433\u0443\u0441\u0442\u0430\u043c\u0438
p119
aV\u0430\u0432\u0433\u0443\u0441\u0442\u0430\u0445
p120
aV\u0441\u0435\u043d\u0442\u044f\u0431\u0440\u044c
p121
aV\u0441\u0435\u043d\u0442\u044f\u0431\u0440\u044f
p122
aV\u0441\u0435\u043d\u0442\u044f\u0431\u0440\u044e
p123
aV\u0441\u0435\u043d\u0442\u044f\u0431\u0440\u044c
p124
aV\u0441\u0435\u043d\u0442\u044f\u0431\u0440\u0451\u043c
p125
aV\u0441\u0435\u043d\u0442\u044f\u0431\u0440\u0435
p126
aV\u0441\u0435\u043d\u0442\u044f\u0431\u0440\u0438
p127
aV\u0441\u0435\u043d\u0442\u044f\u0431\u0440\u0435\u0439
p128
aV\u0441\u0435\u043d\u0442\u044f\u0431\u0440\u044f\u043c
p129
aV\u0441\u0435\u043d\u0442\u044f\u0431\u0440\u0438
p130
aV\u0441\u0435\u043d\u0442\u044f\u0431\u0440\u044f\u043c\u0438
p131
aV\u0441\u0435\u043d\u0442\u044f\u0431\u0440\u044f\u0445
p132
aV\u043e\u043a\u0442\u044f\u0431\u0440\u044c
p133
aV\u043e\u043a\u0442\u044f\u0431\u0440\u044f
p134
aV\u043e\u043a\u0442\u044f\u0431\u0440\u044e
p135
aV\u043e\u043a\u0442\u044f\u0431\u0440\u044c
p136
aV\u043e\u043a\u0442\u044f\u0431\u0440\u0451\u043c
p137
aV\u043e\u043a\u0442\u044f\u0431\u0440\u0435
p138
aV\u043e\u043a\u0442\u044f\u0431\u0440\u0438
p139
aV\u043e\u043a\u0442\u044f\u0431\u0440\u0435\u0439
p140
aV\u043e\u043a\u0442\u044f\u0431\u0440\u044f\u043c
p141
aV\u043e\u043a\u0442\u044f\u0431\u0440\u0438
p142
aV\u043e\u043a\u0442\u044f\u0431\u0440\u044f\u043c\u0438
p143
aV\u043e\u043a\u0442\u044f\u0431\u0440\u044f\u0445
p144
aV\u043d\u043e\u044f\u0431\u0440\u044c
p145
aV\u043d\u043e\u044f\u0431\u0440\u044f
p146
aV\u043d\u043e\u044f\u0431\u0440\u044e
p147
aV\u043d\u043e\u044f\u0431\u0440\u044c
p148
aV\u043d\u043e\u044f\u0431\u0440\u0451\u043c
p149
aV\u043d\u043e\u044f\u0431\u0440\u0435
p150
aV\u043d\u043e\u044f\u0431\u0440\u0438
p151
aV\u043d\u043e\u044f\u0431\u0440\u0435\u0439
p152
aV\u043d\u043e\u044f\u0431\u0440\u044f\u043c
p153
aV\u043d\u043e\u044f\u0431\u0440\u0438
p154
aV\u043d\u043e\u044f\u0431\u0440\u044f\u043c\u0438
p155
aV\u043d\u043e\u044f\u0431\u0440\u044f\u0445
p156
aV\u0434\u0435\u043a\u0430\u0431\u0440\u044c
p157
aV\u0434\u0435\u043a\u0430\u0431\u0440\u044f
p158
aV\u0434\u0435\u043a\u0430\u0431\u0440\u044e
p159
aV\u0434\u0435\u043a\u0430\u0431\u0440\u044c
p160
aV\u0434\u0435\u043a\u0430\u0431\u0440\u0451\u043c
p161
aV\u0434\u0435\u043a\u0430\u0431\u0440\u0435
p162
aV\u0434\u0435\u043a\u0430\u0431\u0440\u0438
p163
aV\u0434\u0435\u043a\u0430\u0431\u0440\u0435\u0439
p164
aV\u0434\u0435\u043a\u0430\u0431\u0440\u044f\u043c
p165
aV\u0434\u0435\u043a\u0430\u0431\u0440\u0438
p166
aV\u0434\u0435\u043a\u0430\u0431\u0440\u044f\u043c\u0438
p167
aV\u0434\u0435\u043a\u0430\u0431\u0440\u044f\u0445
p168
a.