(dp0
S'9debdea73e2c6381ee83f8c42f53cab5_in'
p1
(lp2
Vsenat
p3
aVmedicaid
p4
aVrepublican
p5
asS'954e143bd3dcbbbdef73fcffabac55cb_in'
p6
(lp7
Vhonda civic si
p8
aVpower
p9
aVcar
p10
aVmurile martinth
p11
aVrich kid
p12
aVmodel
p13
aVjunkyard gem
p14
asS'ff7ed1cb'
p15
(lp16
Vdear friend
p17
aVwall
p18
aVhead
p19
aVwindchil
p20
aVdelight mysteri object
p21
asS'e3a0bab0_in'
p22
(lp23
Vfood
p24
aVdiffer cultur background
p25
aVcertain radiat
p26
aVhealth hazard bacteria
p27
aVhair wash
p28
asS'b87929683aa48b8a75d1db3ccea6356a_in'
p29
(lp30
Vstrateg step
p31
aVgov
p32
aVborder
p33
aVgov
p34
aVilleg flow
p35
asS'2503e766'
p36
(lp37
Vsimilar
p38
aVxiaomi mi
p39
aVidol 4s
p40
aVqualcomm msm8976
p41
aVmm
p42
aVgb
p43
aVdual
p44
aVdetect autofocu
p45
aVcortex a53
p46
aValcatel
p47
asS'ac4cb68b_in'
p48
(lp49
Vcup rice flour
p50
aVmaharashtra
p51
aVcoconut jaggeri mix
p52
aVtbsp
p53
aVtsp cardamom powder
p54
aVsiev
p55
aVdeep bottom pan
p56
asS'4a26c7a_in'
p57
(lp58
Vupcom film
p59
aVaur pinki faraar
p60
asS'9b93b5a9_in'
p61
(lp62
Vcolleg student
p63
aVdeath trigger
p64
aVtanveer hussain
p65
aVdistrict hospit
p66
aVmohd hafiz
p67
aVambul
p68
asS'fba25ecd'
p69
(lp70
Vhead
p71
aVwindchil
p72
aVwall
p73
aVmani tv serial
p74
aVdear friend
p75
aVdelight mysteri object
p76
asS'e1fff2c_in'
p77
(lp78
Vhuge cost burden
p79
aVertiga petrol price
p80
aVhybrid segment
p81
asS'b4c4919a_in'
p82
(lp83
Vlitr u2 crdi
p84
aVspeed manual transmiss
p85
aVcar manufactur
p86
aVpre book
p87
aVfluidic design languag
p88
aVtail lamp
p89
aVrear park sensor
p90
asS'f94c01a8'
p91
(lp92
Vhead
p93
aVwindchil
p94
aVwall
p95
aVrevers connector
p96
aVdual camera setup
p97
aVdear friend
p98
aVmegapixel soni imx398
p99
aVdelight mysteri object
p100
asS'4fd18d9c7a1459e55aab734e6609aede_in'
p101
(lp102
Vmicro
p103
aVmoment
p104
aVbrand
p105
aVgoogl random fact
p106
aVconsum experi
p107
aVleverag
p108
asS'b63e73fc1158630e97fef583da4ff9d4_in'
p109
(lp110
Vfavorit contin
p111
aVbeauti beach
p112
aVbeach ive
p113
aVsouth sudan
p114
aV
p115
asS'9897d03b5610029b2f6aa15ce6bf266a_in'
p116
(lp117
Vkid
p118
aVrais hard work
p119
aVthing
p120
aVunderdog
p121
aVteach
p122
aVmotiv
p123
aVinsult
p124
asS'78eb155f_in'
p125
(lp126
Vgilead scienc 039
p127
aVapprov combin product
p128
aVviiv
p129
aVsub saharan africa
p130
asS'4d6d376f3a70ed95d0bd05b4452aaced_in'
p131
(lp132
Vglow
p133
asS'74d77ab5_in'
p134
(lp135
Vsocial life
p136
aVladi luck
p137
aVunpalat truth
p138
aVself reflect
p139
aVcrisp tongu
p140
aVoblig
p141
aVfavor day
p142
aVclose friend
p143
asS'adeb995b26ce27c82bef636878daf3df_in'
p144
(lp145
Vnail polish
p146
aVmakeup
p147
aVphysic appear
p148
aVtoken moistur
p149
aVlip color
p150
aVeye drop
p151
asS'ccb5cd8ae9e73037422d2fdac5c0c616_in'
p152
(lp153
Vbodi part
p154
aVbosson
p155
aVfifti year
p156
aVcrash victim
p157
asS'acef46c58cee67696b5dbbdf5b29f76e_in'
p158
(lp159
Vshare
p160
aVbrunch dish
p161
aVsmall plate
p162
asS'214fcea'
p163
(lp164
Vpadma vibhushan
p165
aVforemost singer
p166
aVhead
p167
aVwindchil
p168
aVwall
p169
aVdear friend
p170
aVdelight mysteri object
p171
asS'47fd9549dade67c2e9edf4ecedcca10d_in'
p172
(lp173
Vmla
p174
aVed attach
p175
aVliquor
p176
aVtandel
p177
aVpramod
p178
aVpramod tandel
p179
asS'8dbc8a081cf2ae100756250bba0ef9c5_in'
p180
(lp181
Videal place
p182
aVperfect destin
p183
aVgemini must head
p184
aVscorpion travel
p185
aVprivat beach
p186
asS'5c6401ef'
p187
(lp188
Vsridevi
p189
aVhead
p190
aVwindchil
p191
aVwall
p192
aVtamil featur film
p193
aVkamal haasan
p194
aVdear friend
p195
aVreleas date
p196
aVdelight mysteri object
p197
asS'f287d9b0_in'
p198
(lp199
Vlocal creat comic
p200
aVmumbai
p201
aVartist movement
p202
aVfinal colour page
p203
aVunbound
p204
aVavid creator
p205
aVcci
p206
aVjawaharl nehru
p207
asS'e75b06a6_in'
p208
(lp209
Vprefer vote
p210
aVrebel congress mla
p211
aVsmriti irani
p212
aVamit shah
p213
asS'f07ac694_in'
p214
(lp215
Vgeo tag
p216
aVwi fi
p217
aVnokia lumia
p218
aVmbp
p219
aVzte blade
p220
aVmm
p221
aVgb
p222
aVappl iphon
p223
aVqualcomm snapdragon
p224
aVcortex a53
p225
asS'7d98b220'
p226
(lp227
Vdear friend
p228
aVwall
p229
aVhead
p230
aVwindchil
p231
aVdelight mysteri object
p232
asS'1d54703592758b50a885783dc20ac1be_in'
p233
(lp234
Vinternship
p235
aVbodi
p236
aVhang
p237
aVhostel
p238
asS'b7c10037_in'
p239
(lp240
Vkathi castor
p241
aVloui st peteri
p242
aVmara gambineri
p243
aVqualiti care
p244
aVcnn health
p245
aVstate remov
p246
aVmedicaid
p247
aVcm
p248
aVsick florida children
p249
asS'219fc3c99e12617ebe7942bb713ea2ef_in'
p250
(lp251
Vway
p252
aVoutput
p253
aVeas client onboard
p254
aVagenc
p255
asS'e6d235f3'
p256
(lp257
Vhead
p258
aVwindchil
p259
aVwall
p260
aV1st screen
p261
aVdear friend
p262
aVdelight mysteri object
p263
asS'9dfd5c14'
p264
(lp265
Vhead
p266
aVwindchil
p267
aVwall
p268
aVsouthern indian ocean
p269
aVschedul passeng flight
p270
aVdear friend
p271
aVdelight mysteri object
p272
asS'7508d3e4cd09405d133609f9aa670577_in'
p273
(lp274
Vfewer hangov
p275
aVthing
p276
aVdog owner
p277
aVimmun enhanc vitamin
p278
aVhealthier
p279
ag115
asS'17455a14_in'
p280
(lp281
Vteam meet
p282
aVmarket learn
p283
aVemploye
p284
aVmani opportun
p285
aVpace
p286
aVcritic situat
p287
aVcrucial thing
p288
asS'bb914ffb_in'
p289
(lp290
Vsha shou jian
p291
aVtechnolog capabl
p292
aVtaiwan strait
p293
aVcarrier battl group
p294
aVcomput network oper
p295
aVlaser weapon develop
p296
asS'e0fa975df7c8509e11a0081d7fbd7251_in'
p297
(lp298
Vroch
p299
aValp
p300
aVglacier
p301
aVhuman
p302
asS'8a5cd474_in'
p303
(lp304
Vsimilarli precis measur
p305
aVjpl tim eifler
p306
aVplanck result
p307
asS'9575cb36_in'
p308
(lp309
Vdoklam standoff
p310
aVposit
p311
aVsino indian
p312
aVsolut
p313
aVcountri territori
p314
asS'998c4bcf_in'
p315
(lp316
Vcrore worth
p317
aVassam
p318
asS'837e0e7c3e75c2938ab9d3d434cd6975_in'
p319
(lp320
Vmbp
p321
aVhsdpa
p322
asS'98870be4415a7367c7b53d46d953764a_in'
p323
(lp324
Vfranco
p325
aVbanker
p326
aVbank interest
p327
aVdeduct
p328
aVdt
p329
aVpatiala
p330
aVrajend
p331
asS'75a96b59_in'
p332
(lp333
Vhunt partner
p334
aVjessica brodi
p335
aVdaili playtim
p336
aVdiffer breed
p337
aVbond
p338
aVbehavior type
p339
aVadequ exercis
p340
asS'35971faf'
p341
(lp342
Vdear friend
p343
aVwall
p344
aVhead
p345
aVwindchil
p346
aVdelight mysteri object
p347
asS'd381a28c_in'
p348
(lp349
Vmondrian foundat
p350
aVtoneelacademi
p351
aVseattl
p352
aVexhibit
p353
aVclassic portrait photographi
p354
asS'e27de414_in'
p355
(lp356
Vfrontier orbit
p357
aVelectron densiti distribut
p358
aVparticular organ crystal
p359
aVnagoya univers
p360
aVphysicist
p361
aVstand mysteri
p362
asS'f26338e5'
p363
(lp364
Vhead
p365
aVwindchil
p366
aVwall
p367
aVchampion leagu
p368
aVdear friend
p369
aVdelight mysteri object
p370
asS'c8c0ae121efacd8788cc3ec01356aaae_in'
p371
(lp372
Vlava
p373
aVgb user
p374
aVbrows similar
p375
aVtouch focu
p376
aVmicrousb v2
p377
aVv4
p378
asS'0a112dd98d99bd83f952fa3b2f575f38_in'
p379
(lp380
Vfinanci result
p381
aVspsr nellor district
p382
aVandhra pradesh
p383
aVankulapatur villag
p384
aVboard meet
p385
asS'6d594655593630d0466369f6006d7012_in'
p386
(lp387
Vhubbl observ
p388
aVscientif discoveri
p389
aVmoon signal
p390
aVhost planet
p391
aVstar system
p392
asS'9aa08d06_in'
p393
(lp394
Vprohibit outfit prison
p395
aVhigh court
p396
aVharkatul jihad
p397
aVkg bomb
p398
aVmufti hannan
p399
asS'a0b8bc43_in'
p400
(lp401
Vpete marovich
p402
aVgriffith observatori
p403
aVcarbondal illinoi
p404
aVbloomberg getti imag
p405
aVscituat
p406
aVwest coast
p407
asS'83d9afae_in'
p408
(lp409
Vcentral govern
p410
aVexist manpow
p411
aVbcd exempt
p412
aVhandset manufactur
p413
aVlower financi charg
p414
aVstringent penal provis
p415
asS'5a41c61_in'
p416
(lp417
Vheavenli sweet fragranc
p418
aVchander mohan
p419
aVfaraway twinkl light
p420
aVgorkha train centr
p421
aVbinaca geetmala
p422
aVkasauli
p423
aVmatern grandpar
p424
aVbeauti english style
p425
aVdharampur
p426
asS'8b9b4e774ffc575f330b5d48add609e5_in'
p427
(lp428
Vdecod
p429
aVjavascript
p430
aVmail address
p431
aVcloudflar
p432
asS'f293edc909d77d88aefb2e925200cd7e_in'
p433
(lp434
Vintern threat
p435
aVnation strategi
p436
aVnon state actor
p437
aVdivert terrorist
p438
aVnation
p439
asS'6f03114d_in'
p440
(lp441
Vbright summeri sauc
p442
aVflavor stove chicken
p443
aVcrush red pepper
p444
aVgrill asparagu
p445
aVlight seafood piccata
p446
aVsweet cherri
p447
aVtender flaki crust
p448
aVspici morn meal
p449
aVsimpl season
p450
asS'3bd7f540a050c33dadb91d58aad5c482_in'
p451
(lp452
Vdiagnosi
p453
aVani
p454
asS'787e4344'
p455
(lp456
Vbrother newlyw
p457
aVhead
p458
aVwindchil
p459
aVstock buyout
p460
aVwall
p461
aVdear friend
p462
aVcalifornia resid
p463
aVdelight mysteri object
p464
aVrow car
p465
aVgx7 golf driver
p466
asS'67e12ff3'
p467
(lp468
Vhead
p469
aVwindchil
p470
aVnon exist inflat
p471
aVbond
p472
aVwall
p473
aVadp
p474
aVconsensu
p475
aVdear friend
p476
aVdelight mysteri object
p477
asS'e0447f48_in'
p478
(lp479
Vjosep llui trapero
p480
aVfrancesc gimeno
p481
aVyouth
p482
aVquaint catalonian town
p483
aVhammou minhaj
p484
aVmorocco
p485
aVmoroccan imam
p486
asS'73ee68bc_in'
p487
(lp488
Vburnt orang color
p489
aVdelhi
p490
aVdupe recommend
p491
aVupper lash line
p492
aVbit
p493
aVbeauti blue eyelin
p494
aVnar persia
p495
asS'a842b976'
p496
(lp497
Vhead
p498
aVwindchil
p499
aVreviv
p500
aVwall
p501
aVdear friend
p502
aVdelight mysteri object
p503
asS'f57aad8f389f6b954b35e29ce6775f71_in'
p504
(lp505
Vmani type
p506
aVbrazilian frontal
p507
aVsever type
p508
aVhuman hair
p509
ag115
aVqualiti assur
p510
aVchoos virgin
p511
asS'a444e0cd077da5a7892ae6760eab1879_in'
p512
(lp513
Vimprint
p514
aVsurrealist
p515
aVkhaitan
p516
aVoffbeat
p517
aVdelhi panel
p518
asS'2eb407647f6b4863561d87d62e953d67_in'
p519
(lp520
Vbjp
p521
asS'50040235_in'
p522
(lp523
Vfaculti
p524
aVresearch paper
p525
aVstudent testimoni
p526
aVclassroom session
p527
aVprepar program
p528
aVabl guidanc
p529
aVcl exam blog
p530
asS'de10dc5e_in'
p531
(lp532
Vspec featur
p533
aVappl watch seri
p534
aVsamsung
p535
aVdelay
p536
aVifa
p537
aVandroid wear
p538
aVpotenti market share
p539
aVwearabl
p540
aVgoogl assist
p541
asS'023a64cfbdf086471a71807e431e7c07_in'
p542
(lp543
Vlandfal
p544
aVlakh household
p545
aVcentral weather bureau
p546
aVstorm
p547
aVchina state ocean
p548
asS'2b78c30a'
p549
(lp550
Vhead
p551
aVcarbon intens materi
p552
aVtrend
p553
aVwood product
p554
aVwall
p555
aVhealth
p556
aVwindchil
p557
aVdear friend
p558
aVdelight mysteri object
p559
asS'2394a2568d8a9d2314b31946ad7e0ddf_in'
p560
(lp561
Vcoa
p562
aVnone
p563
aVsport
p564
aVrahul johri
p565
aVwafi sport
p566
asS'f723e724_in'
p567
(lp568
Vbusi review
p569
aVstrict limit warranti
p570
aVamaz custom servic
p571
aVsocial compet employe
p572
aVappl store
p573
aVfood prep procedur
p574
aVhidden trigger
p575
aVzappo
p576
aVimpress hurt
p577
aVpast neg experi
p578
asS'6c748ede'
p579
(lp580
Vsear filet mignon
p581
aVcrepe cook
p582
aVexcess puff pastri
p583
aVmushroom duxel
p584
aVteaspoon black pepper
p585
aVtablespoon oliv oil
p586
aVwrap steak
p587
asS'b4a91087_in'
p588
(lp589
Vaug
p590
aVkid
p591
aVrescu
p592
aVfr edward thoma
p593
aVshaik md shafi
p594
aVnodal agenc
p595
aVacadem disinterest
p596
asS'ddf9240ce0bd1fd32ad21ff9f85255c7_in'
p597
(lp598
Vdeshpand
p599
aVsudhanva
p600
aVsafdar
p601
aVfront rear door
p602
aVnatya
p603
asS'9607c04c9aad383d6e21c799ff64b18f_in'
p604
(lp605
Vautumn
p606
aVquit chines ballad
p607
aVupsw
p608
aVtourist
p609
asS'24216f60733ac7940f6b758346aee67a_in'
p610
(lp611
Vgb ramexpand
p612
aVbrows similar
p613
aVdual sim
p614
aVpush mail
p615
aVlcd capacit touchscreen
p616
aVpanason
p617
asS'e578d2f6_in'
p618
(lp619
Vpolic picket
p620
aVwife
p621
aVrestaur
p622
aValleg affair
p623
aVmr khan
p624
aVillicit relationship
p625
aVhusband
p626
asS'a4fbfba4_in'
p627
(lp628
Vclue
p629
aVmoon
p630
aVnewfound materi
p631
aVplanet earli year
p632
aVlunar soil
p633
aVearth
p634
aVatmospher oxygen
p635
aVkentaro terada
p636
asS'67291a45_in'
p637
(lp638
Vextra amen
p639
aVfree upgrad
p640
aVtravel agent
p641
aVspecial occas
p642
aVguest stay
p643
asS'84436fb3_in'
p644
(lp645
Vlunchbox food compon
p646
aVpayasam
p647
aVrooh afza
p648
aVbengal loung
p649
aVlunch box
p650
aVnimboo pani
p651
aVkhan saheb nasta
p652
aVfounder aninda palit
p653
aVindian tiffin festiv
p654
asS'8829fb5c30490e9f8787a08178ddf8c8_in'
p655
(lp656
Vdetoxifi
p657
aVcounter relianc jio
p658
aVjojoba
p659
asS'2c842ce3_in'
p660
(lp661
Vnatur shini
p662
aVbenefit
p663
aVantioxid
p664
aVreduc gray
p665
aVbenefici tonic
p666
aVtreat dandruff
p667
aVscalp cleanser
p668
aVexcess pitta
p669
asS'922d0cc3d014c719b3a8172fec42d7bf_in'
p670
(lp671
Vmisconcept
p672
aVpath
p673
aVuneclips
p674
asS'be82dfe177f961349b17fc489a8d449c_in'
p675
(lp676
Vjena
p677
aVsatyajit
p678
asS'ea733376_in'
p679
(lp680
Vhandset
p681
aVmah batteri power
p682
aVdual camera
p683
aVsnapdragon
p684
aVslr type imag
p685
aVinch screen
p686
aVfhd resolut
p687
aVgpu
p688
aV64gb intern storag
p689
asS'1e0b03e2_in'
p690
(lp691
Vspaciou comfort
p692
aVmileag
p693
aVspace
p694
aVuser review
p695
aVpaint finish
p696
aVcomment
p697
aVexterior strong
p698
aVac interior
p699
asS'433722b2_in'
p700
(lp701
Vwell
p702
aVcavallo point lodg
p703
aVexquisit cours meal
p704
aVchez panissein berkley
p705
aVbuddhist philosophi class
p706
aVchef adam
p707
aVbusi trip
p708
aVhealthi lifestyl
p709
aVmodern day conveni
p710
asS'19445ea9b22594aeb5caa9da3b9a1422_in'
p711
(lp712
sS'3bb4559d8c43d9aa151d123fa8b29bb3_in'
p713
(lp714
g115
aVservic compani
p715
aVdynam
p716
aVmonetari polici
p717
aVindian busi
p718
aVchinoy articl
p719
aVextran factor
p720
asS'8b564025a7ad1cbccf33c53245d304e1_in'
p721
(lp722
Vodisha cm
p723
aVpay damag compens
p724
aVasit
p725
asS'972f9dde_in'
p726
(lp727
V3g hspa mbp
p728
aVcandybar
p729
aVgb brows similar
p730
aVasu zenfon
p731
aVsoni xperia
p732
aVip capacit touchscreen
p733
aVgp glonass beidou
p734
aVwi fi direct
p735
aVlte
p736
aVquad core ghz
p737
asS'a6f36c82_in'
p738
(lp739
Vrevolut
p740
aVstraw
p741
aVclimat chang hero
p742
aVjapanes
p743
aVorgan practic
p744
aVladi eve balfour
p745
aVnatur farm
p746
aVfarmer
p747
asS'030fae5544995fe3a680865b7b7410c9_in'
p748
(lp749
Vgerman citi
p750
aViraqi gunman
p751
aVpolic rule
p752
aVfatal disco
p753
asS'30523c29_in'
p754
(lp755
Vmilitari farm
p756
aVhigh yield cattl
p757
aVfriswal breed
p758
aVraksha seva samiti
p759
aVnationwid stir
p760
aVicar
p761
aVdefenc ministri
p762
aVholstein cow
p763
aVmeerut
p764
asS'abca9f2725065721667045e8352ff13d_in'
p765
(lp766
Vzero hiv infect
p767
aVgrulich
p768
aVbekker
p769
aVvaccin
p770
asS'6fc12a338ae97482e011fbadbf1fb461_in'
p771
(lp772
Vdeath toll
p773
aVghatal
p774
aVtoll
p775
aVsituat
p776
aVbengal 31
p777
asS'007abb8c81140180057b757cfc22ffc4_in'
p778
(lp779
Vsatkhira district
p780
aVschool tournament
p781
ag115
aVdevelop system
p782
aVmani player
p783
asS'325cd62e'
p784
(lp785
Vhead
p786
aVcore porn show
p787
aVwindchil
p788
aVwall
p789
aVdear friend
p790
aVviewer
p791
aVdelight mysteri object
p792
asS'7bab55_in'
p793
(lp794
Vprivaci
p795
aVtermin ill patient
p796
aVaruna
p797
aVguidelin passiv euthanasia
p798
aVindian
p799
aVcurrent verdict
p800
aVdeni prolong treatment
p801
asS'060c61708f075c09d10f237f75b25fbb_in'
p802
(lp803
Vswiss
p804
aVatom bomb
p805
aVmysteri crash
p806
aVcrash
p807
aVclimber
p808
asS'2b51a1e40d0c6000e10f837bd3282e20_in'
p809
(lp810
Vkryptonian hero
p811
aVgotham citi garag
p812
aVdiffer version
p813
aVdc
p814
asS'46bbb551124df51425be684774e57131_in'
p815
(lp816
Vnumer hotel
p817
aVyoull
p818
aVnorth atlant
p819
asS'36d380df_in'
p820
(lp821
Vbead lapel
p822
aVforal embroid jacket
p823
asS'e3d394ac'
p824
(lp825
Vhead
p826
aVwindchil
p827
aVwall
p828
aVstandalon movi
p829
aVdear friend
p830
aVdelight mysteri object
p831
asS'986eadb319e86c06154d27e09a66e117_in'
p832
(lp833
Vsnip programm
p834
aVresearch environ
p835
aVelectronic wast unit
p836
aVservo electr machin
p837
aVdiffer machin
p838
asS'bbd90793df5de214df27ed74df390bf2_in'
p839
(lp840
Vholger misar
p841
aVaccount number
p842
aVciti tourist
p843
asS'6833abd1bd21f9d900981f1045fda00b_in'
p844
(lp845
Vvacat pictur
p846
aViifa
p847
aVblack pair
p848
aViifa travel
p849
aVlook
p850
aVtravel look
p851
asS'4ecb7625'
p852
(lp853
Vhead
p854
aVwindchil
p855
aVwall
p856
aVmario testino night
p857
aVdear friend
p858
aVkatrina kaif
p859
aVdelight mysteri object
p860
asS'e02b394d_in'
p861
(lp862
Vnation museum
p863
aVart
p864
aVfemal artist
p865
aVwomen
p866
asS'f2f2c5be5a8b5d687b1d95cbc30f85f1_in'
p867
(lp868
Vkala ghoda
p869
aVfootpath trail
p870
aVstreet artist
p871
aVbook
p872
asS'eaa1fbeec91d79d261e67b4fa35e557c_in'
p873
(lp874
Vhealthi
p875
aVvoic child right
p876
aVnhm
p877
aVgive children odisha
p878
asS'ae7ed077'
p879
(lp880
Vaa batteri
p881
aVbuy button
p882
aVonlin payment gateway
p883
aVminer surfac roller
p884
aVregular use
p885
aVheel
p886
aVship
p887
aVcrack feet
p888
aVreason price pedicur
p889
asS'6a91ca0b2c05c78e489dfc5eb3274c58_in'
p890
(lp891
Vurban design
p892
aVicon build
p893
aVmani cinema
p894
aVarchitectur style
p895
asS'7914f6a1_in'
p896
(lp897
Vtweet
p898
aVgameofthron
p899
aVthrone season
p900
aVaugust
p901
asS'98b4cf79_in'
p902
(lp903
Vmillenni pink eyeshadow
p904
aVholograph liner
p905
aVnachiket barv runway
p906
aVjayanti reddi
p907
aVsmoki cat eye
p908
aVpigment liquid effect
p909
aVfashion week winter
p910
aVcandi colour lip
p911
asS'ef2ecf91_in'
p912
(lp913
Vlen
p914
aVwide angl shot
p915
aVdadar west
p916
aVavid photograph
p917
aVbappa
p918
aVhandi tip
p919
asS'8b6282f0_in'
p920
(lp921
Vbetter bookmark
p922
aVbesam cosmet chocol
p923
aVupper lip
p924
aVmakeup product
p925
aVkiss lipstick
p926
aVtutori
p927
asS'b8264390_in'
p928
(lp929
Vgenom islet
p930
aVssi 1
p931
aVvetmeduni vienna
p932
aVmonocytogen strain
p933
aVfoodborn pathogen
p934
aVdiffer gene sequenc
p935
aVstress surviv island
p936
asS'a9a66c28'
p937
(lp938
Vlte band
p939
aVv5 lollipop
p940
aVcapacit touchscreen
p941
aVgeo tag
p942
aVmm
p943
aVwi fi direct
p944
aVgb
p945
aVcortex a53
p946
asS'c5bdfcfd274a978fd8d089051513b762_in'
p947
(lp948
Vblock
p949
aVinterpol
p950
aVinternet watch
p951
asS'd419749e_in'
p952
(lp953
Vbutter
p954
aVsilver cardboard packag
p955
aVgorgeou lip shade
p956
aVpurpl floral print
p957
aVsandston
p958
aVfavorit de lipstick
p959
aVcreami matt finish
p960
aVglide
p961
aVreview
p962
asS'a5fd6c7f_in'
p963
(lp964
Vcollagen boost treatment
p965
aVeye cream
p966
aVsmooth glow complexion
p967
aVproper skincar step
p968
aVhyaluron acid
p969
aVtopic growth factor
p970
aVdead skin cell
p971
aVfavorit face wash
p972
asS'4548f95f276a6c531e9118af16779396_in'
p973
(lp974
Vmar
p975
aVpratt
p976
asS'3633dada7eee415dedf94b4ae8f435bd_in'
p977
(lp978
Vpowervr
p979
aVgb
p980
asS'da673032_in'
p981
(lp982
Vabc
p983
aVtv show
p984
aVseri conclus
p985
asS'aa45962bc40aa95e43bfa437d192db05_in'
p986
(lp987
Vunderarm
p988
aVslowest
p989
aVlighten
p990
aVturmer
p991
aVlemon juic
p992
asS'ca25b1a7_in'
p993
(lp994
Vnishith desai associ
p995
aVangel
p996
aVstartup practic
p997
aVearli stage ventur
p998
asS'71bc286a_in'
p999
(lp1000
Vprof bhaskar ramamurthi
p1001
aVadmiss
p1002
aViitm ac
p1003
aVlakh student
p1004
aVqualifi exam
p1005
aVonlin mode
p1006
asS'893fb93b'
p1007
(lp1008
Vhead
p1009
aVseri clinch win
p1010
aVwall
p1011
aV2nd odi
p1012
aVwindchil
p1013
aVdear friend
p1014
aVdelight mysteri object
p1015
asS'1606d4f10ba7c0a9eb635335941755ed_in'
p1016
(lp1017
Vcup wild rice
p1018
aVcook whole grain
p1019
aVhigh heat
p1020
aVramp
p1021
aVsimmer minut
p1022
aVboil water
p1023
asS'8f420cc0323b4f32a46f557933259e0d_in'
p1024
(lp1025
Vau juniv cream
p1026
aVage area
p1027
aVactiv ingredi
p1028
aVbusi likewis
p1029
aVskin structur
p1030
aVnatur product
p1031
asS'88daf216_in'
p1032
(lp1033
Vtransact focus market
p1034
aVbusi
p1035
aVpolaroid
p1036
aVinher referr
p1037
aVtradit televis advertis
p1038
aVprofit focu
p1039
asS'e0a50e094c670a22c24410570bc9e55e_in'
p1040
(lp1041
Vnasa want
p1042
aVobserv app
p1043
aVglobe
p1044
aVfree globe
p1045
asS'f3d92edf0aae5224722038d676e7a2c6_in'
p1046
(lp1047
Vgear
p1048
aVfantast suggest
p1049
aVamerica
p1050
aVraptor
p1051
aVidea top
p1052
aVfichtner
p1053
asS'5f9ad0cfb21b3ef9a72251ccbd7fc3e0_in'
p1054
(lp1055
Vzhangjiak citi
p1056
aVhotel
p1057
aVresort
p1058
asS'fa4002e0_in'
p1059
(lp1060
Vzakir hussain
p1061
aVmcspici paneer burger
p1062
aVdelhi
p1063
aVindia
p1064
aVmani outlet
p1065
aVnorth indian franchise
p1066
aVvikram bakshi
p1067
asS'0a28165f3f5e2233e6f81a812039ef75_in'
p1068
(lp1069
Vbhoomi
p1070
aVposter
p1071
aVmovi bhoomi imag
p1072
aVposter
p1073
asS'986bd2469c6ea68bec652f65a1e34da2_in'
p1074
(lp1075
Vkasam
p1076
aVbedi
p1077
asS'18ab5aa1_in'
p1078
(lp1079
Vtattoo
p1080
aVd ointment
p1081
aVoption wash option
p1082
aVsuper sensit skin
p1083
aVink
p1084
aVgentl exfoli
p1085
aVsunscreen lotion spf
p1086
aVscab
p1087
aVmild soap
p1088
aVlubriderm daili moistur
p1089
asS'86726822_in'
p1090
(lp1091
Vparent daili newslett
p1092
aVcertain type
p1093
aVkid live
p1094
aVstandard
p1095
aVgrade
p1096
aVeveri doubter
p1097
aVyork
p1098
aVspecif skill
p1099
aVrevolutionari way
p1100
asS'c0da0c8a_in'
p1101
(lp1102
Vbangladesh flood forecast
p1103
aVreuter
p1104
aVsazzad hossain
p1105
aVdisast manag depart
p1106
aVpeopl
p1107
asS'bb403dd8_in'
p1108
(lp1109
Vincom tax
p1110
aVretrospect legisl
p1111
aValleg capit gain
p1112
aVhutchison
p1113
aVindia
p1114
aVcrore demand
p1115
aVli ka shing 039
p1116
aVhong kong
p1117
aVintern arbitr panel
p1118
aVvodafon
p1119
asS'e77170c9620033324c7185f15fd6e9b6_in'
p1120
(lp1121
Vfir
p1122
aVfir
p1123
aVgauz
p1124
aVbleed wound
p1125
aVbleed
p1126
aVcruelti anim
p1127
aVlocal polic station
p1128
asS'9f5f21de_in'
p1129
(lp1130
Vgreen sauc combin
p1131
aVenough oliv oil
p1132
aVsauci avocado
p1133
aVherb
p1134
aVblack bean
p1135
aVcup ketchup
p1136
aVchop chive
p1137
asS'8de8b7c0d176eef536c1070683803612_in'
p1138
(lp1139
Vroch
p1140
aValp
p1141
aVglacier
p1142
asS'ddc3f628_in'
p1143
(lp1144
Vnumer connect flight
p1145
aVmetro citi
p1146
aVhassan madah
p1147
aVlakh tourist
p1148
aVsourc market
p1149
asS'349fec02_in'
p1150
(lp1151
Vcurrent exercis
p1152
aVsanction undermin
p1153
aVintercontinent ballist missil
p1154
aVnuclear war
p1155
asS'81067ae4_in'
p1156
(lp1157
Vlifetim preval
p1158
aVclinic psychologist
p1159
aVbio psycho social
p1160
aVdaili life
p1161
aVstigma
p1162
aVimport factor
p1163
asS'c6d4592'
p1164
(lp1165
Vbengaluru time india
p1166
aVhead
p1167
aVcab
p1168
aVwindchil
p1169
aVwall
p1170
aVdear friend
p1171
aVdelight mysteri object
p1172
asS'01e2927ac311ac1b2e8c5c593223b8c3_in'
p1173
(lp1174
Vwin
p1175
asS'26dc17d5'
p1176
(lp1177
Vhead
p1178
aVwindchil
p1179
aVwall
p1180
aVlist
p1181
aVdear friend
p1182
aVdelight mysteri object
p1183
asS'a9b86823_in'
p1184
(lp1185
Vfacial massag
p1186
aVnatur ayurved product
p1187
aVrose water
p1188
aVpre shave routin
p1189
aVcell renew
p1190
aVrejuven effect
p1191
aVshahnaz husain
p1192
asS'54d2da6aac1e7e5e9f2061a4064d69a1_in'
p1193
(lp1194
Vperson style
p1195
aVjewelleri platform
p1196
aVyoung shopper
p1197
aVbrand associ
p1198
asS'89133d41_in'
p1199
(lp1200
Vbrexit
p1201
aVfree trade agreement
p1202
aVjapanes
p1203
aVbritain
p1204
aVvgu vm
p1205
aVmitsubishi ufj
p1206
aVeuropean union
p1207
asS'948535bb_in'
p1208
(lp1209
Vomg
p1210
aVsajid nadiadwala
p1211
aVhttp co l28cihyvlh
p1212
aVraja prem
p1213
aVdhawan
p1214
aVtaapse pannu
p1215
asS'897d33a28f63c4dae4b25c1757f7af27_in'
p1216
(lp1217
Vgrace roadpaul coughlin
p1218
aVronchi knock
p1219
aVrun reutersdurham
p1220
asS'6bcc0efd_in'
p1221
(lp1222
Vaasl chief
p1223
aVanti dope unit
p1224
aVnation
p1225
aVvalid reason
p1226
aVlanka
p1227
aVshantha de silva
p1228
asS'64556ff6'
p1229
(lp1230
Vhead
p1231
aVwindchil
p1232
aVwall
p1233
aVdirect rout
p1234
aVdear friend
p1235
aVexpand servic
p1236
aVdelight mysteri object
p1237
asS'e5c96c5182fbde8bc8b7bb3da977eb7b_in'
p1238
(lp1239
Vanti inflammatori compound
p1240
aVtrench
p1241
aVenviou
p1242
aVshade
p1243
asS'ebe78379'
p1244
(lp1245
Vnatur light flow
p1246
aVseamless glass enclosur
p1247
aVspace stretch illus
p1248
aVwalk
p1249
aVshower knee wall
p1250
aVcumbersom vaniti
p1251
aVbathroom floor tile
p1252
aVtub
p1253
aVmarbl door frame
p1254
asS'659f25ea'
p1255
(lp1256
Vhead
p1257
aVwindchil
p1258
aVwall
p1259
aVdoctor onlin
p1260
aVdear friend
p1261
aVdelight mysteri object
p1262
asS'888e427a_in'
p1263
(lp1264
Vs8
p1265
aVdesktop optim version
p1266
aVusb type
p1267
aVpower game laptop
p1268
aVmultipl mobil devic
p1269
aVpc
p1270
aVsmartphon tablet app
p1271
aVcomput
p1272
aVandroid
p1273
asS'61b82ae209020032aae8e83b3cde09d5_in'
p1274
(lp1275
Vdiffus
p1276
aVremedi
p1277
aVkg
p1278
asS'04403a9bb08cae20b1ef640e4f694b33_in'
p1279
(lp1280
Vghz kryo
p1281
aVbrows similar
p1282
aVhdrphase detect autofocu
p1283
aVgb dual core
p1284
aVcomparison
p1285
aVvolt phone
p1286
asS'e6819413_in'
p1287
(lp1288
Vbest custom servic
p1289
aVdarjeel
p1290
aVrishikesh
p1291
aVtradit indian expertis
p1292
aVguest
p1293
asS'd8cf1cd9'
p1294
(lp1295
Vhead
p1296
aVwindchil
p1297
aVwall
p1298
aVapr
p1299
aVdear friend
p1300
aVdelight mysteri object
p1301
asS'd3e33b98'
p1302
(lp1303
Vdear friend
p1304
aVwall
p1305
aVhead
p1306
aVwindchil
p1307
aVdelight mysteri object
p1308
asS'271e68d870d5d9b34494af7cfbbf1963_in'
p1309
(lp1310
Vpti
p1311
aVahmedabad airport
p1312
aVboom screen
p1313
aVindiatim articl
p1314
aVnews outlet
p1315
asS'565cf5c7_in'
p1316
(lp1317
Vnda govern
p1318
aVpeopl
p1319
aVassembl elect result
p1320
aVverdict
p1321
aVparti
p1322
aVnpp
p1323
asS'b07c79e4'
p1324
(lp1325
Vhead
p1326
aVwindchil
p1327
aVwall
p1328
aValmost thirti peopl
p1329
ag115
aVeast java
p1330
aVdear friend
p1331
aVdelight mysteri object
p1332
asS'd8aa1a5c_in'
p1333
(lp1334
Vlte band
p1335
aVasu zenfon
p1336
aVmm
p1337
aVwi fi direct
p1338
aVip capacit touchscreen
p1339
aVocta core ghz
p1340
aVsim
p1341
aVcortex a53
p1342
asS'f1afb96a_in'
p1343
(lp1344
Vparamed degre cours
p1345
aVprintout
p1346
aVfee detail
p1347
aVentranc examin
p1348
aVmedic candid
p1349
aVcolleg wise name
p1350
aVbsc nurs
p1351
asS'88120926_in'
p1352
(lp1353
Vnight king armi
p1354
aVaugust
p1355
asS'09fb20c44ae56f4a8abe4d18c1d954b8_in'
p1356
(lp1357
Vea
p1358
aVbatteri life
p1359
asS'3cb4f068'
p1360
(lp1361
Vrestaur bartend
p1362
aVwindchil
p1363
aVwall
p1364
aVhead
p1365
aVpre grammi parti
p1366
aVsorri singer point
p1367
aVdear friend
p1368
aVdelight mysteri object
p1369
asS'b510eadf955bcae19e3e3538d5b3f260_in'
p1370
(lp1371
Vmodel
p1372
aVbuyer
p1373
aVfremont
p1374
aVskin dead cell
p1375
asS'5ccf4df3'
p1376
(lp1377
Vupcom episod
p1378
aVhead
p1379
aVwindchil
p1380
aVwall
p1381
aVdear friend
p1382
aVdelight mysteri object
p1383
asS'78d89377_in'
p1384
(lp1385
Vexcess fluid
p1386
aVunhealthi food
p1387
aVparsley
p1388
aVexercis regimen
p1389
aVten day break
p1390
aVempti stomach
p1391
aVineffect method
p1392
asS'02a10dd12aef3252d9fb9668c832e95e_in'
p1393
(lp1394
Vleaguer
p1395
aVaryn
p1396
aVderek jeter
p1397
asS'f317ee5e121c19adb89297c4101d6f00_in'
p1398
(lp1399
Vroch
p1400
aValp
p1401
aVglacier
p1402
asS'b7553a9283ef4cfd25c7438dafcbca49_in'
p1403
(lp1404
Vpakistan prime
p1405
aVpunjab
p1406
aVparti leader
p1407
aVminist shehbaz
p1408
aVsher aaya
p1409
asS'1effab41c4f5761c45f035cf88f1df98_in'
p1410
(lp1411
Vgovt
p1412
asS'b285155f_in'
p1413
(lp1414
Vroad map
p1415
aVjagdish singh khehar
p1416
aVstate govern
p1417
aVmanish kumar
p1418
aVconstabl
p1419
aVplea
p1420
aVuttar pradesh
p1421
aVapex court
p1422
asS'434bad79'
p1423
(lp1424
Vhead
p1425
aVwindchil
p1426
aVwall
p1427
aVblood sugar level
p1428
aVdear friend
p1429
aVdelight mysteri object
p1430
asS'6e67c441'
p1431
(lp1432
Vhead
p1433
aVwildlif depart
p1434
aVwindchil
p1435
aVwall
p1436
aVdear friend
p1437
aVresidenti
p1438
aVdelight mysteri object
p1439
asS'4734f72d50ed9ff49a9d45b91239e37d_in'
p1440
(lp1441
Vcontract research
p1442
aVkr jamwal
p1443
asS'da5c4a8f_in'
p1444
(lp1445
V45th chief justic
p1446
asS'5b5fffcee06434c2ac05bf1e93a8ea35_in'
p1447
(lp1448
Vkulli thiarai
p1449
aVmerced amg gt
p1450
aVeighth car launch
p1451
asS'1a24e368_in'
p1452
(lp1453
Vworkout supplement
p1454
aVseventi hour rest
p1455
aVomega fatti acid
p1456
aVmoder excercis
p1457
aVweight lift session
p1458
aVdepart store brand
p1459
aVdark meat fish
p1460
aVfat burn pill
p1461
aVhigh repetit exercis
p1462
asS'f0b5f59b_in'
p1463
(lp1464
Vtri
p1465
aVscorer race
p1466
aVradradra
p1467
asS'c8b4a7e6'
p1468
(lp1469
Vhead
p1470
aVwindchil
p1471
aVjail
p1472
aVwall
p1473
aVinmat
p1474
aVskin
p1475
aVdear friend
p1476
aVblanket
p1477
aVdelight mysteri object
p1478
asS'fd2a917a_in'
p1479
(lp1480
Vcnn
p1481
aVunwto world tourism
p1482
aVmillion visitor
p1483
aVnorthern mariana island
p1484
aVcome destin
p1485
asS'125fbfb9c3f40f6090af83a33978f168_in'
p1486
(lp1487
Vpipelin
p1488
aVvan
p1489
aVrescu
p1490
asS'd63cd72_in'
p1491
(lp1492
Vchief technolog offic
p1493
aVministri
p1494
aVnation govern divis
p1495
aVexecut director
p1496
aVjoint secretari
p1497
aVdigit transform summit
p1498
asS'7234472ae52bae7128f22382519b50fc_in'
p1499
(lp1500
Vvillag
p1501
aViaf helicopt
p1502
aVstate congress
p1503
asS'ecb80c20_in'
p1504
(lp1505
Vversac group
p1506
aVexpens cloth brand
p1507
asS'749c0524'
p1508
(lp1509
Vhead
p1510
aVwindchil
p1511
aVbeauti
p1512
aVproduct review
p1513
aVwall
p1514
aVeveryday summer makeup
p1515
aVdear friend
p1516
aVbollywood
p1517
aVdelight mysteri object
p1518
asS'6904f0cbd54e433ac3aa23892c1667bb_in'
p1519
(lp1520
Vhari krishnan
p1521
aVhari
p1522
aVfloor
p1523
aVemploye
p1524
aVayanavaram polic
p1525
aVpolic personnel
p1526
aVex railway employe
p1527
asS'caabdd91_in'
p1528
(lp1529
Vparticipatori democraci
p1530
aVdynam
p1531
aVdelhi
p1532
aVeasi solut
p1533
aVdr walunir tzudir
p1534
asS'ae86e47d2402d4aa5be083765c4bedc9_in'
p1535
(lp1536
Vtemperatur chang
p1537
aVsavori flavor
p1538
asS'48dd42c3'
p1539
(lp1540
Vhead
p1541
aVwindchil
p1542
aVpolic violenc
p1543
aVwall
p1544
aVdear friend
p1545
aVban
p1546
aVdelight mysteri object
p1547
asS'd0f67df2310f1b572eb2ffbe7f1f55b4_in'
p1548
(lp1549
Vlakh
p1550
aVrelief camp
p1551
aVdvc barrag
p1552
aVwater pouch
p1553
asS'2dafeba4_in'
p1554
(lp1555
Vaustin wigley
p1556
aVtishomingo
p1557
aVlarger ole red
p1558
aVcanada
p1559
aVblake shelton sweetli
p1560
asS'05011e2ef31aa8dccfedd993d284ce63_in'
p1561
(lp1562
Vservic examin
p1563
aVservic examin ii
p1564
aVhall ticket
p1565
aVtnpsc group
p1566
aVvariou depart
p1567
aVgov
p1568
asS'f159f680_in'
p1569
(lp1570
Vproper dredg
p1571
aVwest
p1572
aVfarakka barrag
p1573
aVbihar purnea district
p1574
aVcentr
p1575
asS'243854398cc43fb5f7379067e22da3ea_in'
p1576
(lp1577
Vlone chariot
p1578
aVnude woman
p1579
aVart exhibit
p1580
aVpoint rise
p1581
asS'b5af0ac5_in'
p1582
(lp1583
Vhour countdown
p1584
aVkm perige
p1585
aVmrr
p1586
aVpslv c39
p1587
aVgeosynchron transfer orbit
p1588
aVindian
p1589
aVisro
p1590
aVdhawan space centr
p1591
aVirnss 1h
p1592
asS'e2b51f74'
p1593
(lp1594
Vhead
p1595
aVwindchil
p1596
aVmakeup tabl clan
p1597
aVwall
p1598
aVdebut short film
p1599
aVdear friend
p1600
aVvintag glamour
p1601
aVdelight mysteri object
p1602
asS'd74958ba'
p1603
(lp1604
Vtrader
p1605
aVhead
p1606
aVwindchil
p1607
aVwall
p1608
aVeleph
p1609
aVdear friend
p1610
aVdelight mysteri object
p1611
asS'560e08e0_in'
p1612
(lp1613
Vfavourit celebr outfit
p1614
aV4d movi
p1615
aVaug
p1616
aVbodi shape
p1617
aVsergi pujad
p1618
aVcloth
p1619
asS'20f0f890_in'
p1620
(lp1621
Vmohini
p1622
aVsafe standard glass
p1623
aVindia
p1624
aVmoon
p1625
aVrahu
p1626
aVelixir
p1627
asS'8a517508'
p1628
(lp1629
Vhead
p1630
aVailment
p1631
aVgupta
p1632
aVpatient suffer
p1633
aVwall
p1634
aVwindchil
p1635
aVdear friend
p1636
aVnephrologist
p1637
aVdelight mysteri object
p1638
asS'36f4131c358d712694584860401b3d64_in'
p1639
(lp1640
Vtravel look
p1641
aVrajindera
p1642
aVpgt
p1643
aVsen sec school
p1644
asS'6a88e153_in'
p1645
(lp1646
Vsituat
p1647
aVstate
p1648
aVdeath toll
p1649
aVassam flood
p1650
aVaffect peopl
p1651
asS'baaf3346ad407ea3375a03c8916260d1_in'
p1652
(lp1653
Vsituat improv
p1654
aVdeath toll
p1655
aVdvc releas
p1656
asS'7e5f6fee_in'
p1657
(lp1658
Vwsd
p1659
aVstray anim
p1660
aVhabitu territori
p1661
aVtea stall owner
p1662
aVdri spot
p1663
aVbit
p1664
aVwikimedia common
p1665
aVindomit spirit
p1666
asS'80d4140c_in'
p1667
(lp1668
Vlatest edtech tool
p1669
aVsuccess learner
p1670
aVedcamp foundat
p1671
aVvoic
p1672
aVco founder chair
p1673
aVorgan profession develop
p1674
asS'ec84ff59_in'
p1675
(lp1676
Vbadminton
p1677
aVmani gold medal
p1678
aVcomplet differ sport
p1679
aVimprov
p1680
asS'4853ae8'
p1681
(lp1682
Vhead
p1683
aVwindchil
p1684
aVwall
p1685
aVforg paper
p1686
aVdear friend
p1687
aVnativ villag
p1688
aVdelight mysteri object
p1689
asS'd825afe7'
p1690
(lp1691
Vhead
p1692
aVwindchil
p1693
aVwall
p1694
aVboney kapoor
p1695
aVsex
p1696
aVsridevi
p1697
aVmarriag
p1698
aVdear friend
p1699
aVflashback
p1700
aVdelight mysteri object
p1701
asS'84c0b366_in'
p1702
(lp1703
Vdeconstruct placket
p1704
aVindia
p1705
aVlayer tunic
p1706
aVdhhai kilo prem
p1707
aVvoluptu women
p1708
asS'feb49177_in'
p1709
(lp1710
Vrupa rege nitsur
p1711
aVforecast
p1712
aVlatest reuter poll
p1713
aVasia largest economi
p1714
aVtoubro financ hold
p1715
aVhigh valu banknot
p1716
aVgdp growth
p1717
asS'b27c61a0ac8c91766a56434b8d1f1bd7_in'
p1718
(lp1719
sS'13db4ad0ccefddb04c9f1217372d7239_in'
p1720
(lp1721
Vprocur
p1722
aVhealth facil
p1723
aVmillion fund
p1724
aVcountri health facil
p1725
asS'482ae3f6_in'
p1726
(lp1727
Vchief
p1728
aVswatantra deo singh
p1729
aVlok sabha
p1730
aVname
p1731
aVbjp
p1732
asS'c619d69f'
p1733
(lp1734
Vhead
p1735
aVco
p1736
aVwindchil
p1737
aVwall
p1738
aVdear friend
p1739
aVfounder join ubereat
p1740
aVdelight mysteri object
p1741
asS'd2f762223e3026f41743d3e4b9330ffd_in'
p1742
(lp1743
Vinning
p1744
aVmidwicket
p1745
aVcommand posit
p1746
asS'b97d67ccacfdb3e7149e9129b662bdd7_in'
p1747
(lp1748
Vpolici review
p1749
aVmember mpc
p1750
asS'3e8a189b'
p1751
(lp1752
Vrevis list
p1753
aVhead
p1754
aVwindchil
p1755
aVwall
p1756
aVdear friend
p1757
aVcandid
p1758
aVdelight mysteri object
p1759
asS'2c80df66'
p1760
(lp1761
Vhead
p1762
aVwindchil
p1763
aVwall
p1764
aVspecial guest
p1765
aVlocal farmer
p1766
aVdear friend
p1767
aVchang
p1768
aVdelight mysteri object
p1769
asS'76155ecd_in'
p1770
(lp1771
Vfernando botero
p1772
aVsami aslan
p1773
aVtork danc art
p1774
aVpatrick hough
p1775
aVbankalar caddesi
p1776
aVturkish artist
p1777
asS'50c2fef7_in'
p1778
(lp1779
Visrael
p1780
aVnewcastl unit
p1781
aVengland
p1782
aVpremier leagu club
p1783
aVnottingham forest
p1784
aVjordi cruyff
p1785
aVassist manag
p1786
asS'5dbcea1b_in'
p1787
(lp1788
Vcreativ side
p1789
aVodd job
p1790
aVunsolicit feedback
p1791
aVerykah badu
p1792
aVus
p1793
aVart world
p1794
aVimagin perfect
p1795
aVself critiqu
p1796
asS'01f08038d338ad69fef8d756e1cc2cc9_in'
p1797
(lp1798
Vgherao
p1799
aVmu
p1800
aVfinish
p1801
aVkick
p1802
aVlaunch stage
p1803
asS'122963acaa8a95448f53caca6ab597b6_in'
p1804
(lp1805
Vcount dip
p1806
aVstudi
p1807
aVmen
p1808
aVresearch
p1809
asS'e169e339_in'
p1810
(lp1811
Vcontinent gt
p1812
aVbeauti analogu dial
p1813
aVgerman ownership
p1814
aVcar manufactur
p1815
aVfine wood veneer
p1816
aVbest sell product
p1817
aVvegan compat cabin
p1818
aVrear light arrang
p1819
asS'efd05f2f'
p1820
(lp1821
Vdear friend
p1822
aVwall
p1823
aVhead
p1824
aVwindchil
p1825
aVdelight mysteri object
p1826
asS'c994d69d'
p1827
(lp1828
Vhead
p1829
aVwindchil
p1830
aVwall
p1831
aVpractic
p1832
aVdear friend
p1833
aVdelight mysteri object
p1834
asS'd9959067_in'
p1835
(lp1836
Vbirthday cake
p1837
aVaug
p1838
aVicecream
p1839
aVdaffodil creation
p1840
aVdessert
p1841
aVavocado chocol mouss
p1842
aVpanna cotta
p1843
asS'ca6a77b3'
p1844
(lp1845
Vhead
p1846
aVfollow woa sanction
p1847
aVwindchil
p1848
aVwall
p1849
aVexecut committe
p1850
aVdear friend
p1851
aVdelight mysteri object
p1852
asS'6381271be07152b059fa98c7a84aa6fe_in'
p1853
(lp1854
Vsignboard
p1855
aVscrap hindi
p1856
asS'2713cde7'
p1857
(lp1858
Vhead
p1859
aVwindchil
p1860
aVwall
p1861
aVsangai express
p1862
aVorganis
p1863
aVverif drive
p1864
aVdear friend
p1865
aVtengnoup district
p1866
aVdelight mysteri object
p1867
asS'485532e7d1cbf0cd1212f72d0e47aa95_in'
p1868
(lp1869
Vphysic
p1870
aVempowern
p1871
aVstate capit
p1872
aVumuahia
p1873
aVchalleng person
p1874
aVempower programm
p1875
aVabia seek
p1876
asS'9ab3f45d_in'
p1877
(lp1878
Vcombin worldwid outcri
p1879
aVselfi stick
p1880
aVcruis ship
p1881
aVaforesaid term
p1882
aVtravel lover
p1883
aVunmanag growth
p1884
aVindustri debat topic
p1885
asS'3020940c9206f89e6ca05cbd80e91db8_in'
p1886
(lp1887
Vdsmd
p1888
aVpoach
p1889
aVwwf
p1890
asS'1a08a56e_in'
p1891
(lp1892
Vgroup
p1893
aVshinn
p1894
aVcaulfield
p1895
aVhumidor
p1896
aVsky race updat
p1897
aVtosen stardom
p1898
aVd vandyk
p1899
asS'cd8be574fa810e3cf4a6b55884827f95_in'
p1900
(lp1901
Vadulthood
p1902
aVmaner
p1903
asS'15c8cfa0'
p1904
(lp1905
Vhead
p1906
aVroom
p1907
aVwall
p1908
aValia
p1909
aVpragya
p1910
aVwindchil
p1911
aVdear friend
p1912
aVtanu
p1913
aVdelight mysteri object
p1914
asS'a23c1a8febd75e55dc47133389eba285_in'
p1915
(lp1916
sS'd2eb8996_in'
p1917
(lp1918
Vdeputi chief minist
p1919
asS'beeb81fb_in'
p1920
(lp1921
Vepic comeback
p1922
aVpixel densiti
p1923
aVbuild qualiti
p1924
aVspec overview
p1925
aVhandset
p1926
aVindestruct phone
p1927
aVrevamp version
p1928
aVrock solid devic
p1929
aVinsan standbi
p1930
asS'399e40ff'
p1931
(lp1932
Vdear friend
p1933
aVwall
p1934
aVhead
p1935
aVwindchil
p1936
aVdelight mysteri object
p1937
asS'427f04e8188fc5ef3b5e7e876ff26ebb_in'
p1938
(lp1939
Vking toward
p1940
aVbhutan mission
p1941
aVforeign minist
p1942
aVpol pot
p1943
asS'67e5a880_in'
p1944
(lp1945
Vwarm water
p1946
aVmixtur
p1947
aVpour sweet chutney
p1948
aVbowl
p1949
aVsmooth past
p1950
aVtsp salt
p1951
aVheat oil
p1952
aVpomegran seed
p1953
aVroast cumin powder
p1954
asS'1ba84dc0cfa981515b17ba32ad513083_in'
p1955
(lp1956
Vticket
p1957
aVexam
p1958
aVhall
p1959
aVinch laptop compart
p1960
asS'e5ed1f85_in'
p1961
(lp1962
Vappar apathi
p1963
aVcuernavaca
p1964
aVticket sale
p1965
aVmexican feder
p1966
aVworld cup qualifi
p1967
aVnation team
p1968
aVfan
p1969
aVjuan carlo osorio
p1970
aVestadio azteca
p1971
asS'b21e63328c1a03873ae514ecb8a93f85_in'
p1972
(lp1973
Vbase
p1974
aVstandard version
p1975
aVautopilot kit
p1976
aVtesla model
p1977
aVdrive featur
p1978
aVupgrad interior
p1979
aVautonom hardwar
p1980
asS'c9746be4_in'
p1981
(lp1982
Vgrate beetroot
p1983
aVoat
p1984
aVbeta glucan fibr
p1985
aVcholesterol level
p1986
aVganesh chaturthi
p1987
aVfruit fill
p1988
aVhigh nutriti valu
p1989
aVhealthi breakfast option
p1990
aVhealth benefit
p1991
asS'e242ab32'
p1992
(lp1993
Vhead
p1994
aVwindchil
p1995
aVwall
p1996
aVdear friend
p1997
aVbusinessman
p1998
aVdelight mysteri object
p1999
asS'cb86de02_in'
p2000
(lp2001
Vprime minist visit
p2002
aV9th bric summit
p2003
aVindian govern
p2004
aVpl punia
p2005
aVcong
p2006
asS'd208dc52'
p2007
(lp2008
Vpresid trump
p2009
aVhead
p2010
aVwindchil
p2011
aVwall
p2012
ag115
aVdear friend
p2013
aVdelight mysteri object
p2014
asS'cc3839d7_in'
p2015
(lp2016
Vspell bind phenomena
p2017
aVcontigu us
p2018
aVwide swath
p2019
aVintern space station
p2020
aVhigh altitud balloon
p2021
asS'0fe6949ddc30972c5c8be251b7037432_in'
p2022
(lp2023
Vbespok cloth
p2024
aVbusi
p2025
aVapplic bespocut
p2026
aVvirtual studio
p2027
aVdesign
p2028
aVfabric industri
p2029
asS'2a7e9854b5d96b4b4935fdf2c473378c_in'
p2030
(lp2031
Vfloor
p2032
aVtest citi
p2033
aVnovemb
p2034
aVaugust
p2035
aVmask
p2036
asS'b61ce1cc'
p2037
(lp2038
Vhead
p2039
aVwindchil
p2040
aVwall
p2041
aVatyp convent film
p2042
aVdear friend
p2043
aVquizz manoj
p2044
aVdelight mysteri object
p2045
asS'8f79c2c6'
p2046
(lp2047
Vhead
p2048
aVwindchil
p2049
aVwall
p2050
aVcheap oat
p2051
aVbroader market exuber
p2052
aVdear friend
p2053
aVgerman 2y yield
p2054
aVdelight mysteri object
p2055
asS'41f0c985_in'
p2056
(lp2057
Vpretti devast effect
p2058
aVquot balanc digest system
p2059
aVdiffer uniqu makeup
p2060
aVjovana rikalo
p2061
asS'20e34574_in'
p2062
(lp2063
Vbest romant movi
p2064
aVhead
p2065
aVwindchil
p2066
aVwall
p2067
aVdear friend
p2068
aVdelight mysteri object
p2069
asS'453c94ca_in'
p2070
(lp2071
Vhair
p2072
aVcute
p2073
aVpdt
p2074
aVfaux fring bun
p2075
aVcolleg girl
p2076
asS'adcd652f_in'
p2077
(lp2078
Vmu
p2079
aVerrat websit
p2080
aVvarsiti offici
p2081
aVbcom
p2082
aVbl llb
p2083
aVexamin
p2084
aVexam
p2085
aVlaw result
p2086
asS'd1f51e57_in'
p2087
(lp2088
Voveral standard
p2089
aVgrowth
p2090
aVrelax taxat environ
p2091
aVmerced benz
p2092
asS'af8e2dadd010a3f50dbc7bd805a133eb_in'
p2093
(lp2094
Vuse instagram
p2095
aVsocial content
p2096
aVengag user
p2097
aVpost giveaway
p2098
asS'af93df8472dafae8f5350b70b92c0c24_in'
p2099
(lp2100
Vpatel
p2101
aVvulner wit court
p2102
asS'65c016d1'
p2103
(lp2104
Vhead
p2105
aVwindchil
p2106
aVwall
p2107
aVdear friend
p2108
aVfilm
p2109
aVdelight mysteri object
p2110
asS'746dba2e23b6d656cb7c7a0d2f591ea9_in'
p2111
(lp2112
Vbalmacewen
p2113
aVarrowtown
p2114
aVdebut album
p2115
aVrealli awesom collect
p2116
aVfatherli advic
p2117
asS'f5953046'
p2118
(lp2119
Vpimpl
p2120
aValo vera gel
p2121
aVbodi hair
p2122
aVfenugreek seed past
p2123
aVexcess oili
p2124
aVextra moistur
p2125
aVbeetroot juic
p2126
aVdri skin
p2127
aVwarm coconut oil
p2128
asS'77a8c596ab28f627d17d92bc11747b9b_in'
p2129
(lp2130
Vcashew contain
p2131
aVhealthi spice
p2132
aVturmer powder
p2133
aValmondsmasala milk
p2134
asS'b5a7b06ef4af3620215df282e6bd8370_in'
p2135
(lp2136
Vdrink alcohol
p2137
aVmani type
p2138
aVbrazilian frontal
p2139
aVsever type
p2140
aVhuman hair
p2141
aVteaser
p2142
ag115
aVqualiti assur
p2143
aVchoos virgin
p2144
asS'71ba20cf'
p2145
(lp2146
Vhead
p2147
aVexcelsior correspond
p2148
aVwindchil
p2149
aVwall
p2150
aVcash
p2151
aVmobil phone
p2152
aVdear friend
p2153
aVdelight mysteri object
p2154
asS'7064ccf8_in'
p2155
(lp2156
Vyelahanka
p2157
aVchronic blue circu
p2158
aVnews app
p2159
aVanim shelter
p2160
aVpig
p2161
aVvapour pub
p2162
aVpeepal tree
p2163
asS'c53b654b'
p2164
(lp2165
Vhead
p2166
aVwindchil
p2167
aVweak asian cue
p2168
aVwall
p2169
aVdeclin share
p2170
aVdear friend
p2171
aVdelight mysteri object
p2172
asS'dc7abee3cefb66040cb3e15fd0e4a4c2_in'
p2173
(lp2174
Vsanghi
p2175
aVsunil
p2176
aVcop
p2177
aVsafeti
p2178
aVvarsiti
p2179
aVsafeti step
p2180
asS'f52571162e12dbb03ae2f43612f210d6_in'
p2181
(lp2182
Vcrore
p2183
aVhyderabad
p2184
aVprotect activ
p2185
aVforest depart
p2186
ag115
asS'e499a43f_in'
p2187
(lp2188
Vmark hugh peck
p2189
aVloan
p2190
aValav
p2191
aVespn fc
p2192
aVstoke
p2193
aVpremier leagu club
p2194
asS'223593be62559af097281e1377b3785e_in'
p2195
(lp2196
Vsanjeev gupta
p2197
aVfirozabad businessman
p2198
aVabduct theori
p2199
aVlocal polic
p2200
asS'90e08b96_in'
p2201
(lp2202
Vpremier leagu goal
p2203
aVdoor
p2204
aVwantaway chelsea striker
p2205
aVcont side
p2206
aVcomplic contractu situat
p2207
aVnoth
p2208
aVmarseil
p2209
asS'c5a1e960eab6cbbd546033fd480d9b89_in'
p2210
(lp2211
Vdegre engin
p2212
aVnarula institut
p2213
aVaugust
p2214
aVguru nanak
p2215
asS'65261df4_in'
p2216
(lp2217
Vlianh zaobao newspap
p2218
aVstone
p2219
aVindian
p2220
aVladakh sector
p2221
asS'218d73262d7b0a914521debcc6c6208d_in'
p2222
(lp2223
Vdomest mine
p2224
aVchines gold
p2225
aVpboc buy
p2226
aVreserv
p2227
aVchina
p2228
aVdomest market
p2229
aVtonn
p2230
aVnet import
p2231
aVchina net
p2232
asS'af30c0bcb6d45cd72d0a4cb0d05535d7_in'
p2233
(lp2234
Vcadillac ct6
p2235
aVmodel 3
p2236
aVtesla musk hand
p2237
aVuaw
p2238
aVearli buyer
p2239
asS'a4cd31cc_in'
p2240
(lp2241
Vweb web browser
p2242
aVherb
p2243
aVhyaluron acid
p2244
aVnatur base substanc
p2245
aVactiv manuka honey
p2246
aVdri clean skin
p2247
aVsnowfal
p2248
aVrefresh waterfal
p2249
asS'56b3e79_in'
p2250
(lp2251
Vminor girl
p2252
aVcurfew
p2253
aVbathinda
p2254
aVsdm chahal
p2255
aVbharat bhushan sharma
p2256
asS'2d2e6dac_in'
p2257
(lp2258
Vstore
p2259
aVmn product
p2260
aVtrust shop experi
p2261
aVbrand author retail
p2262
aVtechnolog integr busi
p2263
aVapp
p2264
aVio user
p2265
asS'4ff89c84'
p2266
(lp2267
Vfriend
p2268
aVsend
p2269
aVview
p2270
asS'621592da_in'
p2271
(lp2272
Vaug
p2273
aVred bandana headband
p2274
aVblack cloth
p2275
aV25am pdt
p2276
aVfavorit woodland creatur
p2277
aVteen
p2278
aVhalloween costum idea
p2279
aVoct
p2280
asS'a9e170e6883db778ac57ba479341ed30_in'
p2281
(lp2282
Vfeder govern
p2283
aVmargi osmond
p2284
aVttf chief
p2285
aVstate elect
p2286
aVsuper growth sector
p2287
asS'e84b84f4'
p2288
(lp2289
Vhead
p2290
aVwindchil
p2291
aVwall
p2292
aVrep
p2293
aVdear friend
p2294
aVdelight mysteri object
p2295
asS'72a9befacf5544f8c77ad5ea6a0c0493_in'
p2296
(lp2297
Vlemon
p2298
aVface pack
p2299
aVstomach disord
p2300
ag115
aVcold water
p2301
aVgram flour
p2302
asS'c65d45a9_in'
p2303
(lp2304
Vdisplay solut
p2305
aVdistributor partner
p2306
aVsonnet technolog
p2307
aVindia
p2308
aVmacbook pro accessori
p2309
aVchanchal deshwal
p2310
aVdrobo inc
p2311
asS'b9ff25aa'
p2312
(lp2313
Vship crew
p2314
aVheritag command
p2315
aVresearch
p2316
aVjapanes submarin
p2317
asS'82bbd890_in'
p2318
(lp2319
Vperfect storag solut
p2320
aVstackabl piec
p2321
aVsilicon sleev
p2322
aVklip
p2323
aVamazon
p2324
aVsoggi salad
p2325
aVrubbermaid lunchblox kit
p2326
asS'ef4f7be9_in'
p2327
(lp2328
Vdear friend
p2329
aVwall
p2330
aVhead
p2331
aVwindchil
p2332
aVdelight mysteri object
p2333
asS'a28228c2371b243b37f6150d89833677_in'
p2334
(lp2335
Vhsdpa
p2336
aVsamsung galaxi fame
p2337
aVv4 2
p2338
aVcandybar
p2339
aVhsupa
p2340
asS'f590fe2a_in'
p2341
(lp2342
Vland acquisit
p2343
aVperiya kottiyur
p2344
aVwayanad collector
p2345
aVdfo
p2346
aVforest depart
p2347
aVpath
p2348
aVcrore
p2349
asS'e039f645_in'
p2350
(lp2351
Vultraclear black
p2352
aVcosmet bye bye
p2353
aVmoroccanoil mend infus
p2354
aVwhite dri spray
p2355
aVcetaphil red
p2356
aVdelic skin
p2357
aVmoistur
p2358
aVferul acid
p2359
asS'c918e96fcd650b9d9c3501270f39a541_in'
p2360
(lp2361
Vupcom film
p2362
aVharri met sejal
p2363
asS'149634d0d81ca3bcf8c9db5a5a670c1a_in'
p2364
(lp2365
Vdevast
p2366
aVdevast ben
p2367
aVindi
p2368
aVzealand
p2369
asS'591e7657_in'
p2370
(lp2371
Vocta core ghz
p2372
aVcoolpad note
p2373
aVgb brows similar
p2374
aVv4 a2dp le
p2375
aVtd lte
p2376
aVip capacit touchscreen
p2377
aVwi fi
p2378
aVgp glonass beidou
p2379
aVcortex a53
p2380
asS'c415c9fbeabcb1d34227e0bc12eaf13f_in'
p2381
(lp2382
Vextra
p2383
aVweekend
p2384
aVmilk bath
p2385
aVskin
p2386
asS'57f03f6e'
p2387
(lp2388
Vhead
p2389
aVwindchil
p2390
aVsuccess
p2391
aVfellow brit
p2392
aVwall
p2393
aVdear friend
p2394
aVdelight mysteri object
p2395
asS'07b5644acd8e2c4f29f9047d746ef4ec_in'
p2396
(lp2397
Vmankulam division forest
p2398
aVwild herd
p2399
aVbubbl water
p2400
aVeleph
p2401
asS'8cd0a54c_in'
p2402
(lp2403
Vdiari
p2404
aVarchitectur photographi
p2405
aVritratti di fabbrich
p2406
aVurban landscap
p2407
aVexhibit
p2408
aVitalian photograph
p2409
aVgiovanna calvenzi
p2410
asS'f5af9f58e859370f2a0fba5c7a27282d_in'
p2411
(lp2412
Vdetermin irrespect
p2413
aVsamuel
p2414
aVarmour bearer
p2415
aVdream god
p2416
aVjonathan
p2417
aVoverwhelm look odd
p2418
aVphilistin
p2419
asS'58bca89ce30786690c4ff01009a836e0_in'
p2420
(lp2421
Vitalian astronaut
p2422
aVexpedit
p2423
aVrussian cosmonaut
p2424
asS'2b33b489_in'
p2425
(lp2426
Vbetter mileag
p2427
aVtail lamp design
p2428
aVbad drl
p2429
aVuser review
p2430
aVcomment
p2431
aVqualiti interior
p2432
aVexterior awesom exterior
p2433
aVelit
p2434
aVfeatur space
p2435
asS'cc72bfd7_in'
p2436
(lp2437
Vcoca cola co
p2438
aVmillion share
p2439
aVlargest common sharehold
p2440
aVtodd comb
p2441
aVannual dividend
p2442
aVberkshir hathaway inc
p2443
aVbank
p2444
asS'd410106b'
p2445
(lp2446
Vhead
p2447
aVwindchil
p2448
aVwall
p2449
aVfather
p2450
aVdear friend
p2451
aVvarun badri dhawan
p2452
aVdelight mysteri object
p2453
asS'561b4954e12687203ad58f53dc4677e1_in'
p2454
(lp2455
Vcraftsperson
p2456
aVproject
p2457
aVcraft villag
p2458
aVartisan
p2459
aVsargaalaya art
p2460
asS'2c4de02258075534853a569d13e11944_in'
p2461
(lp2462
Vspecial person
p2463
aVmani thing
p2464
aVtell
p2465
aVtrue af
p2466
aVpeopl
p2467
asS'9ac2ccc4_in'
p2468
(lp2469
Vsun
p2470
aVnorthern ireland
p2471
aVcomplet dark
p2472
aVsporad astronom event
p2473
aVmoon
p2474
asS'62084ce279fbc340ec04b015ceecfaff_in'
p2475
(lp2476
Vbodi
p2477
aVstrong effect
p2478
aVenough water
p2479
asS'ba7f8d73c998e714a1dc5c58cfaff4e7_in'
p2480
(lp2481
Vhydrat
p2482
aVkora
p2483
aVnoni
p2484
asS'374764f5_in'
p2485
(lp2486
Vfibrou food
p2487
aVmetabol function
p2488
aVcomplet nutrient dens
p2489
aVsugar diet
p2490
aVbodi fat percentag
p2491
aVnutritionist karishma chawla
p2492
aVfertil chanc
p2493
aVfuel obes
p2494
asS'aa83d050e1fcf612b243d2e4b7f95bc3_in'
p2495
(lp2496
Vfantasi
p2497
aVcommut
p2498
asS'07f1bb7e4dc2cc248e953316995ed7aa_in'
p2499
(lp2500
Vlife
p2501
aVthing
p2502
aVavoid
p2503
aVwill
p2504
aVmistak
p2505
aVjealou
p2506
aVother mistak
p2507
aVmental
p2508
asS'9f161a67_in'
p2509
(lp2510
Vparticular painter
p2511
aVmumbai
p2512
aVexpens artist
p2513
aVgodmoth
p2514
aVpassion wildlif photograph
p2515
aVcollect
p2516
asS'2f103b96_in'
p2517
(lp2518
Vsarto
p2519
aVelectropl heel
p2520
aVsteve madden emot
p2521
aVknee
p2522
aVgap leather block
p2523
aVaso kendra point
p2524
asS'caad6de4'
p2525
(lp2526
Vschool
p2527
aVwindchil
p2528
aVcharter
p2529
aVwall
p2530
aVhead
p2531
aVdear friend
p2532
aVdelight mysteri object
p2533
asS'88807c8d_in'
p2534
(lp2535
Vcomplaint
p2536
aVharyana polic
p2537
aVday judici custodi
p2538
aVfaridabad
p2539
aVtest identif parad
p2540
aVvasant kunj
p2541
aVjawaharl nehru
p2542
asS'74206428_in'
p2543
(lp2544
Vtoll
p2545
asS'2cf60c86_in'
p2546
(lp2547
Vmillion monthli queri
p2548
aVjamaica
p2549
aVcaribbean
p2550
aVsearch engin giant
p2551
aVhighest incom household
p2552
aVedmund bartlett
p2553
asS'c7c2b4c3_in'
p2554
(lp2555
Vtehsil nathana
p2556
aVbarnala bypass rd
p2557
aVcomment
p2558
aVadmiss
p2559
aVacadem
p2560
aVpg cours
p2561
aVmaharaja ranjit singh
p2562
aVfeedback
p2563
aVaddit inform
p2564
asS'6cef4177'
p2565
(lp2566
Vnerdi
p2567
aVhead
p2568
aVwindchil
p2569
aVwall
p2570
aVfrenzi
p2571
aVdear friend
p2572
aVsimilarli style spectacl
p2573
aVdelight mysteri object
p2574
asS'699971c8'
p2575
(lp2576
Vhead
p2577
aVajax websit
p2578
aVwall
p2579
aVkaizer chief style
p2580
aVwindchil
p2581
aVdear friend
p2582
aVdelight mysteri object
p2583
asS'd6108f7a350d225b4aa2cf3cc9f6a13d_in'
p2584
(lp2585
Vpotenti entrepreneur
p2586
asS'a488dbde'
p2587
(lp2588
Vhead
p2589
aVwindchil
p2590
aVwall
p2591
aVmillion follow
p2592
aVswashbuckl batsman
p2593
aVindian
p2594
aVdear friend
p2595
aVdelight mysteri object
p2596
asS'892c5ba4_in'
p2597
(lp2598
Vnon perform asset
p2599
aVdefault
p2600
aVlike list
p2601
aVvideocon industri
p2602
aVbse sensex
p2603
aVlakh crore
p2604
asS'79131227_in'
p2605
(lp2606
Vitalian marco verratti
p2607
aVbrazilian
p2608
asS'673bc9c5_in'
p2609
(lp2610
Vsever paralys patient
p2611
aVhuman intellig
p2612
aVautomat neurolog diagnosi
p2613
asS'6fb96c9770ad362e7ed318aadac8e145_in'
p2614
(lp2615
Vremain
p2616
ag115
aVplane crash
p2617
asS'ce79efce_in'
p2618
(lp2619
Vimpact growth
p2620
aVbenz india md
p2621
aVauto compani
p2622
aVcess
p2623
aVluxuri car
p2624
aVpropos hike
p2625
asS'9ca294939b508060385cdedcf44b9851_in'
p2626
(lp2627
Vdiagnosi wasnt
p2628
aVworld champion
p2629
aVendometriosi australia
p2630
aVrio dream
p2631
ag115
aVseebohm olymp
p2632
asS'549138c5_in'
p2633
(lp2634
Vdeborah malkoff cohen
p2635
aVsnack
p2636
aVhealthi ingredi
p2637
aVdiffer diet theori
p2638
aVsteam veget
p2639
aVkitchen
p2640
aVplain greek yogurt
p2641
aVglorifi candi
p2642
aVvari research result
p2643
asS'4291aa84'
p2644
(lp2645
Vhead
p2646
aVwindchil
p2647
aVwall
p2648
aVchines scientist
p2649
aVdear friend
p2650
aVdelight mysteri object
p2651
asS'b215ce6b1caedfeeeebc7de7f1dd9677_in'
p2652
(lp2653
Vwbtc
p2654
aVinfo
p2655
asS'b64c6785c6bb83c64f1e7d0f347db002_in'
p2656
(lp2657
Vimpress
p2658
aVbalanc activ line
p2659
aVclient
p2660
aVcrew
p2661
asS'434a5a60_in'
p2662
(lp2663
Vcourt
p2664
aVcottah land
p2665
aVnews app
p2666
aVeighti woman
p2667
aVambul
p2668
aVbattl son
p2669
asS'682d9bd0_in'
p2670
(lp2671
Vodi seri
p2672
aVedgbaston
p2673
aVretweet england
p2674
aVtest cricket predict
p2675
asS'f47ebc1b_in'
p2676
(lp2677
Vkartik
p2678
aVkeerthi
p2679
aVdadi
p2680
aVyeh rishta
p2681
aVnaksh
p2682
aVsimpl manner
p2683
aVkehlata hai
p2684
aVsangeet
p2685
aVnaira
p2686
aVrishi dev
p2687
asS'd71dcf26_in'
p2688
(lp2689
Vtext messag
p2690
aVcustom
p2691
aVmobil galaxi note
p2692
aVuser
p2693
aVhandset
p2694
aVunit state
p2695
aVdual 12mp camera
p2696
aViri scanner
p2697
aVslightli earli deliveri
p2698
aVoffici avail date
p2699
asS'e3206c52_in'
p2700
(lp2701
Vtest
p2702
aVsteve
p2703
aVseam bowl support
p2704
aVhazlewood
p2705
aVreplac
p2706
asS'22282ea28f07310f6ca24ce75d82517e_in'
p2707
(lp2708
Vaayog chairman
p2709
aVurban local bodi
p2710
aVharyana
p2711
asS'3be9bd8d68152909586f6d027b0853b7_in'
p2712
(lp2713
Vcrater rim notch
p2714
aVnasa opportun
p2715
aVrear wheel actuat
p2716
asS'f30df5ce'
p2717
(lp2718
Vhead
p2719
aVwindchil
p2720
aVwall
p2721
aVdemocrat media propaganda
p2722
aVdear friend
p2723
aViranian hard line newspap
p2724
aVdelight mysteri object
p2725
asS'a08906fa_in'
p2726
(lp2727
Vthrottl
p2728
aVeveri corner
p2729
aVlift overst
p2730
aV707bhp suv
p2731
aVsrt
p2732
aVhellcat engin
p2733
aVeasili remov reson
p2734
aVtrackhawk review
p2735
aVextra 100lb weight
p2736
asS'cd8ca677_in'
p2737
(lp2738
Vpolic train school
p2739
aVsmt
p2740
aVmanag tourism
p2741
aVcop
p2742
aVforeign domest tourist
p2743
aVbrass
p2744
aVpt
p2745
asS'1ee08f57_in'
p2746
(lp2747
Vcross loc
p2748
asS'6072ceb285ba0fa56d5488fac5d44a7e_in'
p2749
(lp2750
Vgear america
p2751
aVaol
p2752
aVford raptor
p2753
aVfloodplain
p2754
aVngt
p2755
asS'71c2b4ed'
p2756
(lp2757
Vhead
p2758
aVwindchil
p2759
aVwall
p2760
aVpopular celeb
p2761
aVfavourit game
p2762
aVreal life
p2763
aVdear friend
p2764
aVthrone charact
p2765
aVdelight mysteri object
p2766
asS'9f0da662'
p2767
(lp2768
Vhead
p2769
aVwindchil
p2770
aVwall
p2771
aVrapid larg reduct
p2772
aVdear friend
p2773
aVdrug
p2774
aVdelight mysteri object
p2775
asS'63c34588'
p2776
(lp2777
Vdear friend
p2778
aVwall
p2779
aVhead
p2780
aVwindchil
p2781
aVdelight mysteri object
p2782
asS'e9188ba6_in'
p2783
(lp2784
Vspoiler clad benz
p2785
aVayrton senna
p2786
aVlexu gs
p2787
aVfast 5er
p2788
aVnear seri car
p2789
aVrival perform powerhous
p2790
aVmonster street version
p2791
asS'76df1a6c'
p2792
(lp2793
Vhead
p2794
aVwindchil
p2795
aVwall
p2796
aVgrand final spot
p2797
aVdear friend
p2798
aVdelight mysteri object
p2799
asS'a240364a_in'
p2800
(lp2801
Vdamag vehicl
p2802
aVcar
p2803
aVauton
p2804
aVgreater houston msa
p2805
aVkatrina
p2806
aVkar auction servic
p2807
aVwidespread flood
p2808
aVaugust auto saar
p2809
asS'caab060e'
p2810
(lp2811
Vhead
p2812
aVwindchil
p2813
aVwall
p2814
aV130th birth anniversari
p2815
aVdear friend
p2816
aVdelight mysteri object
p2817
asS'6cbded29_in'
p2818
(lp2819
V100gm dark chocol
p2820
aVraw cacao powder
p2821
aVvasudha rai
p2822
aVeasi recip
p2823
aVblend peanut butter
p2824
aVsoak date
p2825
aVgrind 50gm
p2826
aVyoga studio
p2827
aVtbsp coconut flour
p2828
asS'143702124bf228994843efde603febdb_in'
p2829
(lp2830
Vinning
p2831
aVinning
p2832
aVprais team
p2833
aVtest match
p2834
ag115
aVlanka
p2835
asS'adfac96af06320b13dba025dcd65e84a_in'
p2836
(lp2837
Vbuddha
p2838
asS'2c389c6a_in'
p2839
(lp2840
Vstray mountain lion
p2841
aVmastiff
p2842
aVchicken
p2843
aVexperi
p2844
aVhound
p2845
aVflightless wild bird
p2846
aVpleasant tax shelter
p2847
aVdog
p2848
asS'3627d538f6704139688047f2e4ea7a9e_in'
p2849
(lp2850
Vmbp
p2851
aVsimilar
p2852
aVgb
p2853
aVhsdpa
p2854
aVhsupa
p2855
asS'82a1adf7'
p2856
(lp2857
Vhead
p2858
aVfile
p2859
aVwindchil
p2860
aVwall
p2861
aVdear friend
p2862
aVfavorit
p2863
aVdelight mysteri object
p2864
asS'd4dfd6e_in'
p2865
(lp2866
Vreal
p2867
aVmillion tweet
p2868
aVunexpect catastroph
p2869
aVpennsylvania state univers
p2870
aVpower outag
p2871
aVhurrican sandi
p2872
asS'57b1fe84_in'
p2873
(lp2874
Vcaptain peter huber
p2875
aVgeneva
p2876
aVzurich airport
p2877
aVflight oper
p2878
aVfleet modernis
p2879
aVmichael weisser
p2880
aVhaul rout
p2881
asS'c1540f5a3fb1b227a6b7778471e8997e_in'
p2882
(lp2883
Vdistrict
p2884
aVkmph
p2885
aVmet depart
p2886
aVbhadrak
p2887
asS'bef0c39eebce3e044a37265d8dbb5bf9_in'
p2888
(lp2889
Vremain
p2890
aVplane crash
p2891
asS'a25b8ab8_in'
p2892
(lp2893
Vancient east
p2894
aVfishguard
p2895
aVoversea tourism revenu
p2896
aVwexford
p2897
aVpromot
p2898
aVkilkenni counti
p2899
asS'8a1a037259fc78e80266b40e3805faec_in'
p2900
(lp2901
Valp
p2902
aVglacier
p2903
aVhuman
p2904
asS'b9010300_in'
p2905
(lp2906
Vlife
p2907
aVrestaur owner
p2908
aVfire tend vehicl
p2909
aVvalid licenc
p2910
aVpetition
p2911
aVmandatori clearanc
p2912
aVgrave secur risk
p2913
asS'f511b0010d2c39861377b52145c6c466_in'
p2914
(lp2915
Vsolo exhibit
p2916
aVpaint
p2917
aVmoran
p2918
aVcontemporari paint
p2919
asS'279da41456a2ca772ccde502a054b172_in'
p2920
(lp2921
Vtouch focu
p2922
aVblossom pinkplatinum silver
p2923
aVface detect
p2924
aVmbp ul
p2925
aVlte cat4
p2926
aVfingerprint sensor
p2927
aVghz krait
p2928
aVgb ram16
p2929
asS'269a2b535744f3f66feccf099df99d3b_in'
p2930
(lp2931
Vsecur affair wiranto
p2932
aVreal threat
p2933
aVextremist threat
p2934
aVindonesia north sulawesi
p2935
aVmarawi occup
p2936
asS'18181827'
p2937
(lp2938
Vhead
p2939
aVwindchil
p2940
aVwall
p2941
aVbrand ambassador
p2942
aVpoor milk produc
p2943
aVdear friend
p2944
aVdelight mysteri object
p2945
asS'9ca75ed0_in'
p2946
(lp2947
Vhog deer
p2948
aVfloodwat
p2949
aVcarcass
p2950
asS'64dbfe9bc63ca6791f78f3cc96c1305a_in'
p2951
(lp2952
Vdraw
p2953
aVfestiv
p2954
aVworld indian
p2955
aVhard fought draw
p2956
aVbiel
p2957
aVfifth round
p2958
asS'44e97c4c_in'
p2959
(lp2960
Vsmall endoscop
p2961
aVcomplet surgic treatment
p2962
aVyouth face
p2963
aVmaximum superfici layer
p2964
aVexcess cheek fat
p2965
aVqualiti local anesthet
p2966
aVskin care product
p2967
aVfacial pore
p2968
aVdeep gentl tissu
p2969
asS'8f97ee6b665ac17348d8fd0751552e2f_in'
p2970
(lp2971
Vstori discuss
p2972
aVfutur project
p2973
aVdirector
p2974
aVkrish manikarnika
p2975
asS'40ee018cfb6f3b2e3b583fffe2a56737_in'
p2976
(lp2977
Vmemory4 gb
p2978
aVsamsung
p2979
aVbrows similar
p2980
aVmicrousb v2
p2981
aVduo i9152
p2982
aVv4
p2983
aVflashfeaturesauto focu
p2984
asS'bd16495574ab8b0227db2d0ab1444d9d_in'
p2985
(lp2986
Vbenarasi brocad
p2987
aVtrend setter
p2988
aVmistak
p2989
aVtrend follow
p2990
ag115
aVdesign monisha
p2991
asS'743a4eb8'
p2992
(lp2993
Vhead
p2994
aVspeci
p2995
aVwindchil
p2996
aVwall
p2997
aVvast wetland
p2998
aVrosi pelican
p2999
aVdear friend
p3000
aVfaraway land
p3001
aVdelight mysteri object
p3002
asS'5afb5ecc_in'
p3003
(lp3004
Vproduct certif
p3005
aVhydraul cylind
p3006
aVindia
p3007
aVmani manufactur
p3008
aVhigh qualiti compon
p3009
aVacceler lever assi
p3010
asS'3f98a213869cc4665a44145a6f6b2810_in'
p3011
(lp3012
Vhiv
p3013
aVconsult hepatologist
p3014
aVresist test
p3015
aVclinic
p3016
aVinfecti diseas
p3017
asS'85f92d22bf6d7cf20a48a82b78ccbb61_in'
p3018
(lp3019
Vbodi part
p3020
aVremain
p3021
aVplane crash
p3022
aVroch
p3023
asS'29ad53c9c7a4380add908d1c41f09f7a_in'
p3024
(lp3025
Vshabnam
p3026
asS'ff832365_in'
p3027
(lp3028
Vmonterey
p3029
aVsir jack brabham
p3030
aVroy salvadori
p3031
aVinlin cylind engin
p3032
aVstirl moss
p3033
aVkm race
p3034
aVreg parnel
p3035
aVjaguar d type
p3036
asS'973dbb1e_in'
p3037
(lp3038
Vbodi
p3039
aVinflammatori reaction
p3040
aVcolorect cancer
p3041
aVmacrophag
p3042
aVimmun cell
p3043
aVclinic studi
p3044
aVautophagi
p3045
aVinterferon respons
p3046
asS'2e76cd41_in'
p3047
(lp3048
Vhouston
p3049
aVloot
p3050
aVrecord rainfal
p3051
aVbbc
p3052
aVsylvest turner
p3053
aVevacu home
p3054
aVian
p3055
asS'cb36923f'
p3056
(lp3057
Vhead
p3058
aVwindchil
p3059
aVwall
p3060
aVdepart defens
p3061
aVdear friend
p3062
aVdelight mysteri object
p3063
asS'fa0b6c46_in'
p3064
(lp3065
Vkid
p3066
aVsweet elderli ladi
p3067
aVpictur
p3068
aVvacuum cleaner
p3069
aVcourtesi
p3070
aVdefens
p3071
aVcamera phone
p3072
aVmani photo
p3073
aVentir album
p3074
aVbethani neumey
p3075
asS'876c60ef_in'
p3076
(lp3077
Vorigin
p3078
aVorgan system
p3079
aVcommon symptom type
p3080
aVharm uv ray
p3081
aVcategori
p3082
aVdisproportion bodi weight
p3083
aVlead risk factor
p3084
aVabnorm loss
p3085
aVskin line tissu
p3086
asS'719b9aef_in'
p3087
(lp3088
Vreal estat unit
p3089
aVal barsha
p3090
aVtitl deed
p3091
aVchequ
p3092
aVforg ownership certif
p3093
aVdh938 000
p3094
aVindian
p3095
aVdubai businessman
p3096
aVpakistani
p3097
asS'f374057e428adda00cddd631ac122d77_in'
p3098
(lp3099
Vpreppi
p3100
aVexcus
p3101
aVlb boneless skinless
p3102
aVcopycat chik fil
p3103
aVbalanc
p3104
aVsoulcycl
p3105
asS'a32c465f4eeb0cd56166af2b36d296f6_in'
p3106
(lp3107
Veffect treatment
p3108
aVworld feder
p3109
aVtropic neurolog group
p3110
aVdr amilton
p3111
aVmosquito bite
p3112
aVraad shakir
p3113
asS'472f8f7545ee5fe6df00b8165c373a15_in'
p3114
(lp3115
Vstudi
p3116
aVsolar eclips
p3117
aVwarn scientist
p3118
aVindia tourism
p3119
aVdevelop corpor
p3120
aVcoral bleach
p3121
aVair india
p3122
asS'E_8bdc857f'
p3123
(lp3124
Vpuppi pad
p3125
aVlint stick
p3126
aVplastic shop bag
p3127
aVdish soap
p3128
aVtini crevic
p3129
aVperman marker stain
p3130
aVmicrowav liquid
p3131
asS'ed7af623'
p3132
(lp3133
Vhead
p3134
aVsecur problem
p3135
aVwindchil
p3136
aVwall
p3137
aVrecoveri flow
p3138
aVuser account
p3139
aVerror
p3140
aVdear friend
p3141
aVdelight mysteri object
p3142
asS'fbc1c46a4a3a8321040001353481679a_in'
p3143
(lp3144
Vlongsleev
p3145
aVhumbl dish
p3146
aVwide pan
p3147
aVmissguid
p3148
aVcolor subtl flavor
p3149
asS'2b0cd9a8abbc3ce6e0abed25f62eef81_in'
p3150
(lp3151
Vdeshpand
p3152
aVsudhanva
p3153
aVsafdar
p3154
aVnatya
p3155
asS'b9671c2f'
p3156
(lp3157
Vhead
p3158
aVwindchil
p3159
aVwall
p3160
aVautomat gearbox
p3161
aVdear friend
p3162
aVamt transmiss
p3163
aVhonda cr
p3164
aVdelight mysteri object
p3165
asS'58143e433d04275e00644bd579c64bbe_in'
p3166
(lp3167
Vaffix
p3168
aVbill
p3169
aVprotect consum
p3170
aVcertain specifi circumst
p3171
aVchanger
p3172
asS'd22bb9c84b921c71a9289fe40a7b5ab4_in'
p3173
(lp3174
Vjim colbi
p3175
aVasset opportun
p3176
aVmunicip curv
p3177
aVmuni market
p3178
aVyield index
p3179
aVyield curv
p3180
asS'c6686cf1_in'
p3181
(lp3182
Vrumbl box gym
p3183
aVminut interv
p3184
aVamrap
p3185
aVfit routin
p3186
aVjustin bieber
p3187
aVcircuit base train
p3188
aVnoah neiman
p3189
asS'f874127e'
p3190
(lp3191
Vhead
p3192
aVwindchil
p3193
aVwall
p3194
ag115
aVdear friend
p3195
aVday
p3196
aVdelight mysteri object
p3197
asS'170063eb_in'
p3198
(lp3199
Vrupe
p3200
aVraghuram rajan
p3201
aVcut lead
p3202
aVweak dollar
p3203
aVflexibl exchang rate
p3204
aVfix incom flow
p3205
aVmonetari polici spillov
p3206
asS'812a39d4'
p3207
(lp3208
Vhead
p3209
aVwindchil
p3210
aVwall
p3211
aVelectr vehicl
p3212
aVdear friend
p3213
aVdelight mysteri object
p3214
asS'c4bf10d4_in'
p3215
(lp3216
Varticl
p3217
aVnc
p3218
aVconstitut guarante
p3219
aVrajouri
p3220
asS'4f3cf7d77239024073f4c314bef7c8f8_in'
p3221
(lp3222
Vpledg
p3223
aVdoi
p3224
aVnepali rupe
p3225
aVxinhua
p3226
asS'6fba7017'
p3227
(lp3228
Vhead
p3229
aVwindchil
p3230
aVwall
p3231
aVsooraj
p3232
aVdear friend
p3233
aVdelight mysteri object
p3234
asS'e451584d'
p3235
(lp3236
Vhead
p3237
aVwindchil
p3238
aVwall
p3239
aVdear friend
p3240
aVswitzerland
p3241
aVdelight mysteri object
p3242
asS'233fd39d'
p3243
(lp3244
Vtmc mp
p3245
aVissu uniform guidelin
p3246
aVwindchil
p3247
aVwall
p3248
aVhead
p3249
aVdiffer airlin
p3250
aVdear friend
p3251
aVcentralis norm
p3252
aVdelight mysteri object
p3253
asS'fd631415_in'
p3254
(lp3255
Vpopular song
p3256
aVmain kaun hoon
p3257
aVcbfc chief
p3258
asS'1f6ac6fe'
p3259
(lp3260
Vhead
p3261
aVfamili
p3262
aVwindchil
p3263
aVwall
p3264
aVdear friend
p3265
aVngo chief execut
p3266
aVdelight mysteri object
p3267
asS'ce50d089d61519538a1a550b1b86cf19_in'
p3268
(lp3269
Vlocal issu
p3270
aVrss worker
p3271
aVcapit district
p3272
aVstate bjp
p3273
aVkummanem rajasekheran
p3274
asS'ce64f6f91e00f15c78baef510cc1acfc_in'
p3275
(lp3276
Vrailway station
p3277
aVslowest
p3278
aVstrongest
p3279
aVrevis
p3280
asS'18fc34da1c3188cec0adcfc08a22425a_in'
p3281
(lp3282
Vindusarkar
p3283
aVmovi review
p3284
aVfilm
p3285
aVcbfc blow
p3286
asS'10bbb08d5ae71f47c7106b982bf4938d_in'
p3287
(lp3288
Vcup blueberri
p3289
aVcold day
p3290
aVpopsicl mold
p3291
aVcold snack
p3292
aVfruit ice pop
p3293
aVcup strawberri
p3294
aVtasti recip
p3295
asS'c8f6a006'
p3296
(lp3297
Vhead
p3298
aVwindchil
p3299
aVwall
p3300
aV4th quarter catch
p3301
aVshouldn
p3302
aVfalcon loss
p3303
aVdear friend
p3304
aVdelight mysteri object
p3305
asS'22e2fba2090a177cef9a1787e9ffbbac_in'
p3306
(lp3307
Vheart
p3308
aVteam mate
p3309
aVthing
p3310
asS'63166257253f82d441d2b0b51822e8a5_in'
p3311
(lp3312
Vspeed interv
p3313
aVminut version
p3314
aVwalk jog
p3315
aVpyramid
p3316
aVcalori
p3317
asS'01de05f1b12751250e41646414b57525_in'
p3318
(lp3319
Vsindhi
p3320
aVunwithdrawn
p3321
asS'58a1a3ee3eb86a763be57902cab8cc1b_in'
p3322
(lp3323
Vbukkal
p3324
aVmlc
p3325
aVnawab
p3326
asS'7ff9dd314317a91a64f1e2204bd217d4_in'
p3327
(lp3328
Vlakh
p3329
aVjuma
p3330
aVexam
p3331
aV2a hall ticket
p3332
aVshivraj
p3333
aVtnpsc group
p3334
aVlokur
p3335
aVchouhan
p3336
aVwit
p3337
asS'15624c96_in'
p3338
(lp3339
Vsifi technolog
p3340
aVlarg tv network
p3341
aVadtech firm
p3342
aVoja ventur partner
p3343
aVgeo target
p3344
aVsrinivasan
p3345
aVtelevis stand
p3346
aVdigit advertis
p3347
asS'a17a9066_in'
p3348
(lp3349
Vnone
p3350
aVwi fi hotspot
p3351
aVgb ram
p3352
aVmass storag
p3353
aVkitkat
p3354
aVmicrousb v2 0
p3355
aVocta core ghz
p3356
aVsim
p3357
aVlcd capacit touchscreen
p3358
asS'307fcd50_in'
p3359
(lp3360
Vpirelli tyre
p3361
aVdelhi
p3362
aVtelescop fork
p3363
aVbajaj pulsar
p3364
aV230mm disc
p3365
aVrear brake
p3366
aV150cc bike
p3367
aVtv apach rtr
p3368
aVsculpt muscular motorcycl
p3369
asS'c6bc1d145a0be4309a3201803456293a_in'
p3370
(lp3371
Vremain
p3372
aVplane crash
p3373
asS'abfba8edc412323f022d4c43f982c8b1_in'
p3374
(lp3375
Vstate run india
p3376
aVcotton
p3377
asS'77fcec0c'
p3378
(lp3379
Vhead
p3380
aVwindchil
p3381
aVwall
p3382
aVgetti raymond hall
p3383
aVdiffer dress
p3384
aVdear friend
p3385
aVdelight mysteri object
p3386
asS'f6a39aea3711bf1c2bedc1e3e9a1cb39_in'
p3387
(lp3388
Vtropic fruit
p3389
aVsmaller pit
p3390
aVgenet differ
p3391
aVpit seed
p3392
aVfruit specialist
p3393
asS'31afbea61d5a18604f3be676809c579f_in'
p3394
(lp3395
Vtribe
p3396
aVselfless
p3397
aVdr
p3398
aVmani wild anim
p3399
aVpet leopard feed
p3400
aVprakash amt
p3401
asS'6d99912de947e981272b201d03e519a6_in'
p3402
(lp3403
sS'48153b61'
p3404
(lp3405
Vhead
p3406
aVwindchil
p3407
aVwall
p3408
aVaudienc awestruck
p3409
aVdear friend
p3410
aVdelight mysteri object
p3411
asS'c227389e_in'
p3412
(lp3413
Vassali maxi
p3414
aVlove
p3415
aVgold hoop ear
p3416
aVhalter style gown
p3417
aVdate night
p3418
aVsimilar select
p3419
aVstella mccartney
p3420
aVmega agenc
p3421
asS'd1c3654ea4eace06f7ff9e165b618053_in'
p3422
(lp3423
Vchief guest
p3424
aVkid sport meet
p3425
aVclass nurseri
p3426
aVrelay race
p3427
aVfinal event
p3428
aVspoon race
p3429
asS'30d8d701ec66de38dbebca5ae9f87cfe_in'
p3430
(lp3431
Vawwa event
p3432
aVwive
p3433
aVnair husband
p3434
aVcommand wife
p3435
asS'ac968ab'
p3436
(lp3437
Vhead
p3438
aVwindchil
p3439
aVwall
p3440
aVglobal econom slowdown
p3441
aVgmt
p3442
aVdear friend
p3443
aVworld news
p3444
aVworst cargo season
p3445
aVdelight mysteri object
p3446
asS'a8977587'
p3447
(lp3448
Vhead
p3449
aVwindchil
p3450
aVwall
p3451
aVdelhi
p3452
aVdear friend
p3453
aVdelight mysteri object
p3454
asS'8eb62284_in'
p3455
(lp3456
Vtax reform
p3457
aVtropic storm harvey
p3458
aVbiggest monthli increas
p3459
aVaugust adp data
p3460
aVwall st
p3461
aVsruthi shankar
p3462
aVdow mini
p3463
aVpercent pace
p3464
asS'faf30a25_in'
p3465
(lp3466
Vshikhar dhawan
p3467
aVbangladesh
p3468
aVtour england
p3469
aVrob quiney
p3470
aVwest indi
p3471
aVtoronto pakistan xi
p3472
aVretweet
p3473
aVsri lanka
p3474
asS'095d43b98e5d0b4b4f133f7b94220402_in'
p3475
(lp3476
Vtyphoon injur
p3477
aVstorm approach
p3478
aVlandfal sunday
p3479
aVhit peopl
p3480
asS'59755967bb432c02132ae92a37648954_in'
p3481
(lp3482
Vteam win
p3483
aVseason
p3484
aVinter boss
p3485
asS'2224a133_in'
p3486
(lp3487
Vbori kleinman
p3488
aVrumor
p3489
aVportugues
p3490
aVskill actor
p3491
aVdaniel craig
p3492
aVcritic acclaim role
p3493
aVstrawberri
p3494
aVcarneiro seixa
p3495
asS'b755e83e'
p3496
(lp3497
Vhead
p3498
aVwindchil
p3499
aVfumiya tatsuki
p3500
aVwall
p3501
aVcertain psychiatr disord
p3502
aVknockout mice
p3503
aVcalcium key
p3504
aVdear friend
p3505
aVdelight mysteri object
p3506
asS'a248e90ad144bfa2a4e8a639100df213_in'
p3507
(lp3508
Vremain
p3509
aVplane crash
p3510
aVmassif
p3511
aVroch
p3512
aVcrash
p3513
asS'a610b97f'
p3514
(lp3515
Vhead
p3516
aVsnc
p3517
aVwall
p3518
aVcell
p3519
aVonset
p3520
aVwindchil
p3521
aVjoint
p3522
aVdear friend
p3523
aVdelight mysteri object
p3524
asS'b1dde89e_in'
p3525
(lp3526
Vstar war
p3527
aVluke
p3528
aVcover
p3529
aVdark
p3530
aVjedi
p3531
aVhungarian magazin
p3532
aVepisod viii
p3533
aVforc awaken
p3534
asS'c413eee9c59a9b5257ffeed15c4af3b6_in'
p3535
(lp3536
Vkarim khan
p3537
aVson
p3538
aVmanag mayank
p3539
aVroadsid eateri
p3540
aVshyam singh verma
p3541
asS'930dd7b4_in'
p3542
(lp3543
Veagl
p3544
aVcenturi
p3545
aVindian
p3546
aVdragon
p3547
aVrand corp
p3548
aVsan andrea fault
p3549
aVbritish lion
p3550
aVreligi minor
p3551
asS'fd54d585'
p3552
(lp3553
Vdear friend
p3554
aVwall
p3555
aVhead
p3556
aVwindchil
p3557
aVdelight mysteri object
p3558
asS'aac331c3'
p3559
(lp3560
Vhead
p3561
aVwindchil
p3562
aVwall
p3563
aVtradit fervour
p3564
aVdear friend
p3565
aVcelebratori mode
p3566
aVdelight mysteri object
p3567
asS'3853e8ab_in'
p3568
(lp3569
Vbrief
p3570
aVus troop
p3571
aVmissil launch
p3572
asS'c76fdcda_in'
p3573
(lp3574
Vvideo anim
p3575
aVoregon
p3576
aVsouth carolina
p3577
aVmoon shadow cross
p3578
aVnasa
p3579
aVlarri koehn
p3580
aVtotal state
p3581
asS'3e3b92e6'
p3582
(lp3583
Vre evalu paper
p3584
aVhead
p3585
aVwindchil
p3586
aVwall
p3587
aVdear friend
p3588
aVstudent
p3589
aVdelight mysteri object
p3590
asS'4ebf21513adf7bb2d76b2a2994fcb8de_in'
p3591
(lp3592
Vviolent gang
p3593
aVcartel
p3594
aVgang
p3595
asS'4190b7194e93a1862e522f0512576df7_in'
p3596
(lp3597
Vtrump tell polic
p3598
aVarrest
p3599
aVeas
p3600
aVagenc
p3601
aVpain
p3602
asS'b4d8554b9538b802d0bba00eedf47ad7_in'
p3603
(lp3604
Vzeng fanzhi
p3605
aVshanghart
p3606
asS'd73db2f3_in'
p3607
(lp3608
Vprivat sphere
p3609
aVviolenc
p3610
aVnon emerg respons
p3611
aVwomen helplin
p3612
aVuniversalis
p3613
aVcomplet volt face
p3614
aVmarit rape
p3615
aVstate ut
p3616
asS'185b3fbbeaf5669f601d1e1e0574a90a_in'
p3617
(lp3618
Vtariff
p3619
aVpolic
p3620
aVcellular
p3621
asS'11bfc219_in'
p3622
(lp3623
Vscottish polic
p3624
aVmood
p3625
aVhilari skit
p3626
aVoffic
p3627
aVfunniest prank
p3628
aVcop
p3629
aVvideo
p3630
aVpoor driver
p3631
aVunidentifi contrapt
p3632
aVdiffer motiv
p3633
asS'6186e234efba34b558a4cebea2872d65_in'
p3634
(lp3635
Vrailway station
p3636
aVmahim
p3637
aVchauhan
p3638
asS'2e236e7f'
p3639
(lp3640
Vhead
p3641
aVwindchil
p3642
aVwall
p3643
aVdear friend
p3644
aVunchang hyderabad
p3645
aVdelight mysteri object
p3646
asS'23e66c21a0f27f488bbfa550d3839a54_in'
p3647
(lp3648
Vdata
p3649
aVsmall manufactur
p3650
aVmateri data
p3651
asS'74bb8f2e_in'
p3652
(lp3653
Vstate health depart
p3654
aVwater storag contain
p3655
aVreport case
p3656
aVgarbag
p3657
aVbbmp
p3658
asS'1aff3a8b22ef2963e771272419f0d162_in'
p3659
(lp3660
Voprah share
p3661
aVpodcast
p3662
aVhabit bill gate
p3663
aVlearn
p3664
asS'ece7256'
p3665
(lp3666
Vmbp
p3667
aVqualcomm msm8960 snapdragon
p3668
aVmm
p3669
aVgb
p3670
aVsimilar
p3671
aVcarl zeiss tessa
p3672
aVwi fi
p3673
aVlumia
p3674
asS'f5273fc83f893c0a704a213c85f2843f_in'
p3675
(lp3676
Vhrd
p3677
aVloi
p3678
aVinstitut
p3679
aVvr compani
p3680
asS'0638e39f1153c7d36b778bace416547f_in'
p3681
(lp3682
Vobes mice
p3683
aVdorsal raph
p3684
aVdrug
p3685
aVresearch jeffrey
p3686
asS'479cdeee0bda3009005d731b8c5f3805_in'
p3687
(lp3688
Vmeaner
p3689
aVmagno
p3690
aVmerc amg
p3691
asS'cb845de_in'
p3692
(lp3693
Vpure abstract canvas
p3694
aVlaw faculti
p3695
aVmunich
p3696
aVfranz stuck
p3697
aVbauhau
p3698
aVtate galleri
p3699
aVmoscow univers
p3700
asS'a1e06026_in'
p3701
(lp3702
Vfilm
p3703
aVannapurna banner
p3704
aVyounger akkineni
p3705
aVhit director
p3706
aVchinni nayana
p3707
asS'108aa0de3de06fd0a4d2940c586e0b01_in'
p3708
(lp3709
Vcow
p3710
aVmla
p3711
aVmani cattl owner
p3712
aVstray
p3713
aVfarmer
p3714
asS'45eadda197add3138901ef1869346f93_in'
p3715
(lp3716
Vextra
p3717
aVweekend
p3718
aVmilk bath
p3719
aVskin
p3720
asS'dbeff76d'
p3721
(lp3722
Virctc offici
p3723
aVhead
p3724
aVsuburban railway system
p3725
aVciti station
p3726
aVchennai beach
p3727
aVwall
p3728
aVwindchil
p3729
aVdear friend
p3730
aVdelight mysteri object
p3731
asS'27af3ca1_in'
p3732
(lp3733
Vinvest summari
p3734
aVrise econom opportun
p3735
aVleszek balcerowicz
p3736
aVstate own monopoli
p3737
aVdomest financi sector
p3738
aVgeopolit instabl
p3739
aVpolish
p3740
aVforecast pe ratio
p3741
aVhealthi earn growth
p3742
asS'791b93307cf75179e8dff52b09b90c39_in'
p3743
(lp3744
Vbangladesh climat
p3745
aVembank system
p3746
aVpolder boundari
p3747
aVdisast risk
p3748
aVcommun livelihood
p3749
aVstorm
p3750
asS'4f0611792b7143c117f7f66ce0990f7c_in'
p3751
(lp3752
Viaf
p3753
aVghatal
p3754
aVtoll
p3755
asS'201e20df5bc14475321b5cf666c43c63_in'
p3756
(lp3757
Vstudent
p3758
aVnasa astronaut
p3759
aVeduc program
p3760
asS'965ec4d38590066e6e66f86b361bf8af_in'
p3761
(lp3762
Vmetal
p3763
aVtaup
p3764
aVhigh intak
p3765
aVplant base food
p3766
aVlip
p3767
asS'fb0bd0ae'
p3768
(lp3769
Vhead
p3770
aVwindchil
p3771
aVwall
p3772
aVstudi
p3773
aVearth climat
p3774
aVdear friend
p3775
aVeveri orbit
p3776
aVdelight mysteri object
p3777
asS'fb56557c_in'
p3778
(lp3779
Vdeath toll
p3780
aVrelief camp
p3781
asS'2040437cd3ff7beec3b0d62483f901b0_in'
p3782
(lp3783
Vdiva
p3784
aVamritsari
p3785
aVsari
p3786
aVbrocad
p3787
asS'2577bba10c86f8750f88180fc49a5b59_in'
p3788
(lp3789
Vautomak geeli
p3790
aVgasolen engin
p3791
aVchines automak
p3792
aVmodel volvo
p3793
aVelectr version
p3794
asS'41221707_in'
p3795
(lp3796
Vefl cup
p3797
aVmontenegrin
p3798
aVuefa champion leagu
p3799
aVmonaco
p3800
aVpartizan
p3801
aVvadim vasilyev
p3802
aVligu
p3803
asS'1dd9fbe7a03c24156651e5f912822f62_in'
p3804
(lp3805
Vnc
p3806
aVmicrozon
p3807
asS'7cb72d57_in'
p3808
(lp3809
Vscientif studi
p3810
aVsciencedirect
p3811
aVproject guru
p3812
aVfield section
p3813
aVpublish research paper
p3814
aVthesi
p3815
aVblackwel synergi
p3816
aVdissert write servic
p3817
aVcogent analysi
p3818
aVpeer review journal
p3819
asS'22fef482ddae18f46953d64b6933eed4_in'
p3820
(lp3821
Vsport led
p3822
aVdisc brake
p3823
aVpiston callip
p3824
aVrear mono
p3825
aVdsk
p3826
asS'12fd6767_in'
p3827
(lp3828
Vbenign ga cost
p3829
aVgrm
p3830
aVfinanci express
p3831
aVongc
p3832
aViocl
p3833
aVigl
p3834
aVrobust core earn
p3835
aVomc
p3836
aVsub sector
p3837
asS'09a7852a3c953501121abf953fb4a0af_in'
p3838
(lp3839
Vonlin demand cours
p3840
aVpartnership
p3841
aVdr adam
p3842
aVeduc programm
p3843
aVcours provid
p3844
aVcommonwealth caribbean
p3845
asS'b77af1c83e2cebbef9d0540d3cd55d82_in'
p3846
(lp3847
Vcraftsperson
p3848
aVproject
p3849
aVnovel
p3850
aVartisan
p3851
aVnine stori
p3852
aVeveri citi
p3853
aVcraft villag
p3854
aVsargaalaya art
p3855
aVartist
p3856
aVtribut
p3857
asS'c43bc652_in'
p3858
(lp3859
Vnobel peac prize
p3860
aVmelt flesh
p3861
aVpromin disarma campaign
p3862
aVslimi burnt skin
p3863
aVnihon hidankyo
p3864
aVatom bomb
p3865
aVpower blast
p3866
asS'5c7691ca_in'
p3867
(lp3868
Vweight
p3869
aVbodi fat
p3870
aVayurved
p3871
aVextra boost
p3872
aVdrink coriand juic
p3873
aVfast metabol
p3874
asS'59f77d1f_in'
p3875
(lp3876
Vcambril
p3877
aVmoroccan secur servic
p3878
aVfourth suspect
p3879
aVrabat
p3880
aVtwin spain attack
p3881
aVsalh el karib
p3882
aVignacio zoido
p3883
asS'fbf7d247_in'
p3884
(lp3885
Vmanoj singh
p3886
aVtempl town
p3887
aVsadar
p3888
aVram janki
p3889
aVfaizabad flood magistr
p3890
aVbodi
p3891
aVtehsil
p3892
asS'8a20b34d_in'
p3893
(lp3894
Vweather channel
p3895
aVtiel
p3896
aVsinton
p3897
aVfood
p3898
aVoti
p3899
aVdocken
p3900
aVlarg bag
p3901
aVtexa
p3902
asS'd721f288'
p3903
(lp3904
Vhead
p3905
aVwindchil
p3906
ag115
aVwall
p3907
aVtrade
p3908
aVdear friend
p3909
aVintraday
p3910
aVdelight mysteri object
p3911
asS'b9805331_in'
p3912
(lp3913
Vcharact
p3914
aVaccent
p3915
aVupcom film
p3916
aVhyderabadi telugu
p3917
asS'01b14d58c6dd179a69f9866ad523c124_in'
p3918
(lp3919
Vearli season highlight
p3920
asS'c41fd0af_in'
p3921
(lp3922
Vlatest job
p3923
aVropar career
p3924
aVaug
p3925
aVankleshwar
p3926
aVphysic educ teacher
p3927
aVelig criteria
p3928
aVrecruit
p3929
aVgreenway school
p3930
asS'1c44cdb7025c65d6099ec026058e378f_in'
p3931
(lp3932
Vmultipl session
p3933
aVsuffici
p3934
aVhigh speed
p3935
asS'a2615a0b_in'
p3936
(lp3937
Vaugust
p3938
aVdelist
p3939
aVsebi
p3940
aVsuspect shell compani
p3941
aVexchang
p3942
aVfirm
p3943
asS'8dc0041e_in'
p3944
(lp3945
Vstubborn
p3946
aVbodi cleanser
p3947
aVexcess dirt
p3948
aVbacteria cleans antioxid
p3949
aVacn
p3950
aVbest face wash
p3951
aVamerican artist
p3952
aVaven clean ac
p3953
aVsooth skin
p3954
aVclay mask
p3955
asS'272231ac_in'
p3956
(lp3957
Vuterin fibroid
p3958
aVrheumatoid arthriti
p3959
aVindia
p3960
aVcardiovascular diseas
p3961
aVpolycyst ovarian syndrom
p3962
aVmatern benefit
p3963
aVosteoporosi
p3964
asS'a62edf5eb87320e8e9738571ae5af168_in'
p3965
(lp3966
Vsona
p3967
aVpyar ke
p3968
aVais bhi
p3969
aVleav
p3970
aVdev
p3971
aVkuch rang
p3972
asS'E_73b656cf'
p3973
(lp3974
Vhead
p3975
aVwindchil
p3976
aVwall
p3977
aVgreen pesto
p3978
aVdear friend
p3979
aVtablespoon butter
p3980
aVdelight mysteri object
p3981
asS'8a465d4f4ddc33fcbf2f43d1e96c66b7_in'
p3982
(lp3983
Villustr programm
p3984
aVgraphic artist
p3985
aVillustr
p3986
aVdesign school
p3987
asS'd368ccb6_in'
p3988
(lp3989
Vlife
p3990
aVmahavir singh phogat
p3991
aVnitesh tiwari
p3992
aVaamir khan 039
p3993
aVian
p3994
asS'9fe75096_in'
p3995
(lp3996
Vneonat icu
p3997
aVenceph ward
p3998
aVchildren
p3999
aVmedic colleg hospit
p4000
aVinfant
p4001
aVinfecti diseas
p4002
aVoxygen suppli problem
p4003
asS'faef98ba'
p4004
(lp4005
Vtough chase
p4006
aVhead
p4007
aVwindchil
p4008
aVwall
p4009
aVdear friend
p4010
aVdelight mysteri object
p4011
asS'fb86ed2150f2a2c262343350cde19347_in'
p4012
(lp4013
Vcolin turkington
p4014
aVbhattad
p4015
aVchastiti
p4016
asS'27d3327f_in'
p4017
(lp4018
Vgod
p4019
aVcreation
p4020
aVprecis word
p4021
aVfinger
p4022
aVmaimonid law
p4023
aVtalmud sanhedrin
p4024
aVentir episod
p4025
aVliter truth
p4026
asS'bc20f0fc89e38a5b329cf861d99f3e33_in'
p4027
(lp4028
Vremain
p4029
aVplane crash
p4030
asS'8f5da87a_in'
p4031
(lp4032
Vnumer connect flight
p4033
aVmetro citi
p4034
aVlakh tourist
p4035
aVpti
p4036
aVsourc market
p4037
asS'197fa459_in'
p4038
(lp4039
Vlayer organza top
p4040
aVsemi ethnic accessori
p4041
aVboho jumpsuit
p4042
aVshailja mittal
p4043
aVchunki metal bangl
p4044
aVwhite sneaker
p4045
aVfusion
p4046
aVundi cotton kurta
p4047
aVmute colour print
p4048
aVreadymad dhoti
p4049
asS'140ca0a755e1a10fef29601864140cd5_in'
p4050
(lp4051
Vminut
p4052
aVskipper sheykh
p4053
aVdabang
p4054
aVpoint lead
p4055
asS'480c95184d5583f8516f882ac4386d79_in'
p4056
(lp4057
Vbaramati
p4058
aVpune polic
p4059
aVlewd messag
p4060
aVcellphon number
p4061
aVsuspect
p4062
aVinspector santosh barg
p4063
asS'7702a111c04c17b38309018ddb3ec6a9_in'
p4064
(lp4065
Vdiffer voltag
p4066
aVlocal embassi
p4067
aVway
p4068
aVchang
p4069
aVcurrenc exchang
p4070
asS'a6be5539_in'
p4071
(lp4072
Vpet chicken
p4073
aVzealand 039
p4074
aVoatmeal
p4075
aVchristma treat
p4076
aVlarg custom coop
p4077
aVpretend villag
p4078
aVbatteri hen
p4079
asS'fe0c9f10'
p4080
(lp4081
Vhead
p4082
aVkatarina srebotnik
p4083
aVwindchil
p4084
aVwall
p4085
aVtax
p4086
aVbother
p4087
aVdear friend
p4088
aVamerican slovenian duo
p4089
aVdelight mysteri object
p4090
asS'12a993ba'
p4091
(lp4092
Vsingl mum louis
p4093
aVhead
p4094
aVpage turner
p4095
aVwall
p4096
aVwindchil
p4097
aVdear friend
p4098
aVbook
p4099
aVdelight mysteri object
p4100
asS'84c75be2e5ec8230b2e2e882e8a96f61_in'
p4101
(lp4102
Vdri run
p4103
aVinning
p4104
aVtest match
p4105
aVgame
p4106
aVindiffer run
p4107
ag115
aVcourtesi
p4108
asS'ba1f03a1_in'
p4109
(lp4110
Vschool
p4111
aVsurjeet singh dadiala
p4112
aVoshiwara
p4113
aVbetter secur
p4114
asS'f6fcbfab'
p4115
(lp4116
Vhead
p4117
aVwindchil
p4118
aVwall
p4119
aVdear friend
p4120
aVstate bjp leader
p4121
aVdelight mysteri object
p4122
asS'34c750fd'
p4123
(lp4124
Vhead
p4125
aVwindchil
p4126
aVwall
p4127
aValleg poacher
p4128
aVdear friend
p4129
aVdelight mysteri object
p4130
asS'afd6b7d8b2026349fc3f054ae0d6af77_in'
p4131
(lp4132
Vinflen
p4133
aVbirth babi
p4134
aVsuperstit
p4135
aVurshita
p4136
asS'845264cc_in'
p4137
(lp4138
Vimd
p4139
aVnormal
p4140
aVclimat chang
p4141
aVtorrenti rain
p4142
aVheavi rainfal event
p4143
aVextrem weather
p4144
asS'a5d95462_in'
p4145
(lp4146
Vinfrastructur construct delay
p4147
aVcatastroph weather event
p4148
aVflood
p4149
aVtrump kill
p4150
aVpresid decis
p4151
aVroll
p4152
aVemerg manag specialist
p4153
asS'12fc58f7_in'
p4154
(lp4155
Vbenefit
p4156
aVeffect condition
p4157
aVcup mustard oil
p4158
aVpowder
p4159
aVscalp
p4160
aVhealthi shine
p4161
asS'1335c57f_in'
p4162
(lp4163
Varrow electron
p4164
aVprofit center
p4165
aVmedia brand
p4166
aVstrategi
p4167
aVbook
p4168
aVaudienc build
p4169
aVredbul
p4170
asS'9af8790b'
p4171
(lp4172
Vgiant panda
p4173
aVhead
p4174
aVwindchil
p4175
aVwall
p4176
aValway kid
p4177
aVlego
p4178
aVcharttop debut album
p4179
aVdear friend
p4180
aVdelight mysteri object
p4181
asS'ed8a5d29'
p4182
(lp4183
Vhead
p4184
aVwindchil
p4185
aVzenvo st1
p4186
aVwall
p4187
aVflamethrow pyre
p4188
aVregular rc car
p4189
aVdear friend
p4190
aVdelight mysteri object
p4191
asS'822e8c84_in'
p4192
(lp4193
Vsituat
p4194
aVnitish kumar
p4195
aVpatna lucknow
p4196
asS'b1ac1c50'
p4197
(lp4198
Vhead
p4199
aVbiopic
p4200
aVwindchil
p4201
aVwall
p4202
aVdear friend
p4203
aVdelight mysteri object
p4204
asS'9dc1b2111b252f6def184d854e678d06_in'
p4205
(lp4206
Vguildhal
p4207
aVioana
p4208
aVtheatr
p4209
aVswedlund
p4210
aVpenguin
p4211
asS'e7fa94c4_in'
p4212
(lp4213
Vkushal tandon love
p4214
aVhead
p4215
aVtrack maya
p4216
aVsamay
p4217
aVwall
p4218
aVwindchil
p4219
aVdear friend
p4220
aVdelight mysteri object
p4221
asS'b4ac6dc914344f2e7f4bc0542c784671_in'
p4222
(lp4223
Vfranz car
p4224
aVtopanga road
p4225
aVtesla model
p4226
aVrang batteri
p4227
aVrear motor
p4228
aVdrive
p4229
asS'bfc34ff2'
p4230
(lp4231
Vdear friend
p4232
aVwall
p4233
aVhead
p4234
aVwindchil
p4235
aVdelight mysteri object
p4236
asS'840241c3'
p4237
(lp4238
Vhead
p4239
aVwindchil
p4240
aVlaunch
p4241
aVwall
p4242
aVmsme organis
p4243
aVdear friend
p4244
aVpia member
p4245
aVdelight mysteri object
p4246
asS'e6bed2ec666e73f2260887fd769de980_in'
p4247
(lp4248
Vminut version
p4249
aVwalk jog
p4250
aVpyramid
p4251
aVcalori
p4252
asS'a194ac35f05a18c5a799b749134b21a0_in'
p4253
(lp4254
Vdoggi
p4255
aVbest thing
p4256
aVstori
p4257
aVsurpris
p4258
aVfacebook
p4259
aVhuman
p4260
asS'243e9bbab7368ca5003be7bcc61d4f8d_in'
p4261
(lp4262
Vfloodplain
p4263
aVseedl
p4264
aVclean chit
p4265
aVlive foundat
p4266
asS'55af546_in'
p4267
(lp4268
Voctomom famou octoplet
p4269
aVjosiah
p4270
aVisaiah nariyah
p4271
aVsuperwoman
p4272
aVdiaper chang
p4273
aVmakai
p4274
aVartifici insemin
p4275
aVsafe childbirth
p4276
aVkid
p4277
asS'334837a3'
p4278
(lp4279
Vhead
p4280
aVwindchil
p4281
aVwall
p4282
aVinstagram courtesi snapchat
p4283
aVdear friend
p4284
aVdelight mysteri object
p4285
asS'c302ea55'
p4286
(lp4287
Vdear friend
p4288
aVwall
p4289
aVhead
p4290
aVwindchil
p4291
aVdelight mysteri object
p4292
asS'1d15ae54_in'
p4293
(lp4294
Vstenograph gde ii
p4295
aVrecogn board
p4296
aVpost
p4297
aVcook matricul pass
p4298
aVmesseng
p4299
aVprescrib format
p4300
aVimport date
p4301
asS'cc6aec49'
p4302
(lp4303
Vhead
p4304
aVwindchil
p4305
aVdeputi pm
p4306
aVwall
p4307
aVpti mpb asv
p4308
aVdear friend
p4309
aVdelight mysteri object
p4310
asS'783c323_in'
p4311
(lp4312
Vmini trumpet type
p4313
aVdusti beaten path
p4314
aVwhole demeanor
p4315
aVwildebeest
p4316
aVeveryon
p4317
aVmysteri way
p4318
aVbabi eleph spot
p4319
aVincred sight
p4320
asS'6640bded_in'
p4321
(lp4322
Vgame seri
p4323
aVwade miley
p4324
aVdani baker articl
p4325
aVmanni machado
p4326
aVchri smith
p4327
aV10th player
p4328
aVcamden yard
p4329
aVwalk grand slam
p4330
asS'b3ed7261_in'
p4331
(lp4332
Vcolleg mate
p4333
aVoffici instagram account
p4334
aVbollywood
p4335
aVchildhood sweetheart
p4336
asS'ca65915a_in'
p4337
(lp4338
Vschedul tribe
p4339
aVaugust
p4340
aValleg poach
p4341
aVfd custodi
p4342
aVneighbour villag
p4343
aVnation commiss
p4344
aVptr
p4345
asS'3cdac91a'
p4346
(lp4347
Vgovt
p4348
aVarticl
p4349
aVsub claus
p4350
asS'd7026131'
p4351
(lp4352
Vsequel tech nokia
p4353
aVhead
p4354
aVhindu brethren celebr
p4355
aVwindchil
p4356
aVwall
p4357
aVdiljeet dosanjh chemistri
p4358
aVindia muslim
p4359
aVdear friend
p4360
aVdelight mysteri object
p4361
asS'94760fa2_in'
p4362
(lp4363
Vfertilis process
p4364
aVganganagar
p4365
aVembryo
p4366
aVdr lal singh
p4367
aVrajasthan gopalan
p4368
asS'8689217_in'
p4369
(lp4370
Vlarger audienc
p4371
aVservic qualiti
p4372
aVimport
p4373
aVpotenti custom
p4374
aVextra valu
p4375
aVnewer product categori
p4376
asS'520f77ba'
p4377
(lp4378
Vhead
p4379
aVwindchil
p4380
aVwall
p4381
aVmechatron student
p4382
aVdear friend
p4383
aVvr experi
p4384
aVdelight mysteri object
p4385
asS'861a0028_in'
p4386
(lp4387
Vbenefit
p4388
aVsurpris
p4389
aVrecipi multipl opportun
p4390
aVcompliment recognit
p4391
aVrole model
p4392
aVreciproc
p4393
aVrave
p4394
aVmani way
p4395
asS'21d87d97a5d2d0ff01d5ad6493dff560_in'
p4396
(lp4397
sS'cc02d169'
p4398
(lp4399
Vhead
p4400
aVwindchil
p4401
aVwall
p4402
aVdamag hous
p4403
aVgusti wind
p4404
aVdear friend
p4405
aVdelight mysteri object
p4406
asS'f14d8333_in'
p4407
(lp4408
Vitem
p4409
aVstuffi nose
p4410
aVinflat mattress
p4411
aVskin allergi
p4412
asS'e551e56e'
p4413
(lp4414
Vhead
p4415
aVaroma magic
p4416
aVwindchil
p4417
aVwall
p4418
aVhair growth
p4419
aVattach file
p4420
aVdear friend
p4421
aVrepli
p4422
aVdelight mysteri object
p4423
asS'1f1092e16eb10448e4dfaece608a0081_in'
p4424
(lp4425
Vchore
p4426
aVcanada
p4427
aVwhillan
p4428
aVunpleas consum chore
p4429
asS'48855653'
p4430
(lp4431
Vmuji hair towel
p4432
aVfounder
p4433
aVtribeca studio
p4434
aVpretti intens workout
p4435
aVamaz maze maze
p4436
aVorib bright blond
p4437
aVdiorshow waterproof blackout
p4438
aVanatomi color book
p4439
asS'9983d840'
p4440
(lp4441
Vdear friend
p4442
aVwall
p4443
aVhead
p4444
aVwindchil
p4445
aVdelight mysteri object
p4446
asS'348b896e_in'
p4447
(lp4448
Vmicrosoft store
p4449
aVreleas date
p4450
aVeveryth
p4451
aVamazon
p4452
aVgame
p4453
aVscorpio edit
p4454
aVwi fi
p4455
aVspec
p4456
aVvr capabl consol
p4457
asS'c717cc8c_in'
p4458
(lp4459
Vambit
p4460
aVlocal commun member
p4461
aVgovern
p4462
aVintroduct
p4463
aVmajor initi
p4464
aVtradit livelihood activ
p4465
aVprogramm
p4466
asS'c58946e9efb9adb8e33587328ae6a423_in'
p4467
(lp4468
Vmajest cat
p4469
aVbeauti stay
p4470
aVsafari experi
p4471
asS'3a5d63c972b0396402bda348eaf5890f_in'
p4472
(lp4473
Vpadmavati
p4474
aVsubah
p4475
aVkabhi
p4476
asS'f81b76a25ca69d2abfc9a64107a6680d_in'
p4477
(lp4478
g115
aVmsn
p4479
aVumtiti
p4480
asS'1848319b7428182f247815b4e1661e24_in'
p4481
(lp4482
Vperfect
p4483
aVswimsuit
p4484
aVpriya anandbusi
p4485
aVconfid
p4486
aVindian outfit
p4487
aVfashion card
p4488
aVweek
p4489
asS'de71bf1d'
p4490
(lp4491
Vhead
p4492
aVwindchil
p4493
aVwall
p4494
aVdear friend
p4495
aVtehran
p4496
aVbronz medal
p4497
aVdelight mysteri object
p4498
asS'96db9f1c'
p4499
(lp4500
Vtemporari basi
p4501
aVhead
p4502
aVwindchil
p4503
aVwall
p4504
aVvisit tourist visa
p4505
aVdear friend
p4506
aVdelight mysteri object
p4507
asS'1d54158d_in'
p4508
(lp4509
Vevgeni nikolaev
p4510
aVblood sampl
p4511
aVscientif report
p4512
aVspace flight
p4513
aVmipt
p4514
aVphysiolog aspect
p4515
asS'350ed278945799b9d173e9a228f44414_in'
p4516
(lp4517
Vremain
p4518
aVpasseng
p4519
aVcrash
p4520
asS'2ca84c0a_in'
p4521
(lp4522
Vdeceas lover
p4523
aVloud bgm score
p4524
aVjunior srikanth
p4525
aVsowcarpet
p4526
aVforgett outing
p4527
asS'910aac55_in'
p4528
(lp4529
Vuse
p4530
aVservic
p4531
aVuser post comment
p4532
aVcollect
p4533
aVrequest delet
p4534
aVlocat inform
p4535
aVhearst
p4536
asS'f5f65159f7b939ff3abecda609351fc8_in'
p4537
(lp4538
Vheavi rainfal
p4539
aVjalor collector
p4540
asS'6c47f50998bb2aae0b0db948d2a6bc43_in'
p4541
(lp4542
Vroch
p4543
aValp
p4544
aVglacier
p4545
asS'7e0e09d6'
p4546
(lp4547
Vthought
p4548
aVhead
p4549
aVwindchil
p4550
aVwall
p4551
aVtwist
p4552
aVdear friend
p4553
aVguy
p4554
aVdelight mysteri object
p4555
asS'614bd685dacd25ebaeae2cdbf2060aae_in'
p4556
(lp4557
Vsyllabu 2017
p4558
aVpsc main test
p4559
aVdownload mpsc
p4560
asS'e159da27'
p4561
(lp4562
Vgeo tag
p4563
aVsweep panorama
p4564
aVgb ram
p4565
aVmbp
p4566
aVqualcomm snapdragon apq8064
p4567
aVmm
p4568
aVwi fi direct
p4569
aVkrait
p4570
aVjelli bean
p4571
asS'8a87f2e3072755b70a6a9580f2dbcad0_in'
p4572
(lp4573
Vlip pigment
p4574
aVnon dri formula
p4575
aVd everlast
p4576
aVkat von
p4577
aVmatt lip
p4578
aVdeeper shade
p4579
asS'7f82e8da2735b89a385d4362c2ddbb3c_in'
p4580
(lp4581
Valmati kazakhstan
p4582
aVbri
p4583
aVastana
p4584
asS'92025bd9_in'
p4585
(lp4586
Vpuppet show
p4587
aVragtag poss
p4588
aVsock hop regalia
p4589
aVswingi poodl skirt
p4590
aVloos pompadour
p4591
aVrockabilli style
p4592
aVjumpsuit
p4593
asS'c6087e4e'
p4594
(lp4595
Vhead
p4596
aVwindchil
p4597
aVwall
p4598
aVtitanium variant
p4599
aVdear friend
p4600
aVluxuri car maker
p4601
aVdelight mysteri object
p4602
asS'ff602897'
p4603
(lp4604
Vhead
p4605
aVconsum merchandis
p4606
aVwall
p4607
aVwindchil
p4608
aVretail busi
p4609
aVdear friend
p4610
aVdelight mysteri object
p4611
asS'281192ed'
p4612
(lp4613
Vhead
p4614
aVmatch perform
p4615
aVwindchil
p4616
aVwall
p4617
aVmatthew
p4618
aVdear friend
p4619
aVdharamsala
p4620
aVdelight mysteri object
p4621
asS'870bfc00'
p4622
(lp4623
Vhead
p4624
aVwindchil
p4625
aVwall
p4626
aVdear friend
p4627
aVrise temperatur
p4628
aVdelight mysteri object
p4629
asS'cfa9b8ac_in'
p4630
(lp4631
Vdevendra fadnavi
p4632
aVcentral railway
p4633
aVsunil udasi
p4634
aVhour rain
p4635
aVganesh pandal
p4636
aVheavi rainfal
p4637
aVlocal train servic
p4638
asS'7b35e43961ab9c1b780eed432282a882_in'
p4639
(lp4640
Vdam
p4641
aVflood situat
p4642
aVrajasthan
p4643
asS'36e14cbb_in'
p4644
(lp4645
Vfmri brain scanner
p4646
aVway
p4647
aVseemingli human characterist
p4648
aVlever
p4649
aVfurri infer
p4650
aVpassiv actor
p4651
aVpaw
p4652
aVborder colli
p4653
asS'ae1276f2_in'
p4654
(lp4655
Vinvestig process
p4656
aVadvoc tahir shamsi
p4657
aVpolic
p4658
aValleg jkca scam
p4659
aVjustic mk hanjura
p4660
aVcourt
p4661
asS'1a2122259659a5c864e9795e7712412d_in'
p4662
(lp4663
Vinch display
p4664
aVprice afford
p4665
aVchipset
p4666
asS'2cd3056c'
p4667
(lp4668
Vdear friend
p4669
aVwall
p4670
aVhead
p4671
aVwindchil
p4672
aVdelight mysteri object
p4673
asS'f397956c_in'
p4674
(lp4675
Vcop
p4676
aVreappear
p4677
aVghar bachao ghar
p4678
aVsardar sarovar dam
p4679
aVmeet medha patkar
p4680
aVindefinit fast protest
p4681
asS'f3030f38'
p4682
(lp4683
Vhead
p4684
aVrender
p4685
aVwall
p4686
aVsnapdragon processor
p4687
aVvariant
p4688
aVwindchil
p4689
aVtag
p4690
aVdear friend
p4691
aVdelight mysteri object
p4692
asS'2b7ec1c5_in'
p4693
(lp4694
Vchild marriag
p4695
aVipc section
p4696
aVwomen activist
p4697
aVpolic regist case
p4698
aVmohd tajuddin ahm
p4699
aVpocso
p4700
aVacp
p4701
asS'a9ece2e6041420a18cc17a1293e3261c_in'
p4702
(lp4703
Vchef
p4704
aVbrookfield zoo
p4705
aVsuperdawg
p4706
asS'7b159afc22560eb29122dfe8861206e4_in'
p4707
(lp4708
Vfilho tri
p4709
aVskin tone
p4710
aVsaint laurent
p4711
aVred shade
p4712
aVimag sourc
p4713
aVskin roncal
p4714
aVmedium complexion
p4715
asS'c250397e_in'
p4716
(lp4717
Vneck care
p4718
aVdesign rajasthani
p4719
aVjacket leather
p4720
aVmen shirt
p4721
aVmani technic gadget
p4722
aVstylish dress
p4723
aVtrendi live style
p4724
aVengag ring
p4725
asS'9182fc93'
p4726
(lp4727
Vquart warm water
p4728
aVwhite
p4729
aVwash linen
p4730
aVnatur fabric soften
p4731
aVlemon juic
p4732
aVlaundri deterg
p4733
aVsimpl way
p4734
aVsoak cloth
p4735
asS'1954f90bd135f35ad5aa0506f0a9ea21_in'
p4736
(lp4737
Vdecod
p4738
aVbot
p4739
aVell
p4740
aVmail address
p4741
aVcloudflar
p4742
asS'7451d86c4d5540ef25b6fd48a760e20c_in'
p4743
(lp4744
Vcommon fault
p4745
aVanchor
p4746
aVstrap
p4747
asS'447f06d2d2cad2d878a9d3d2737e92ec_in'
p4748
(lp4749
Vseal brothel
p4750
aVclient
p4751
aVsatish kumar
p4752
aVbihar school examin
p4753
asS'e4c574e5'
p4754
(lp4755
Vhead
p4756
aVwindchil
p4757
aVwall
p4758
aVlate actor
p4759
aVset
p4760
aVdear friend
p4761
aVentir crew
p4762
aVdelight mysteri object
p4763
asS'00e86be1315bc31d5237e2014f428d4f_in'
p4764
(lp4765
Vpopul densiti
p4766
aVexact number
p4767
aVmangrov forest
p4768
aVforest depart
p4769
asS'fa11ed57_in'
p4770
(lp4771
Vmumbai
p4772
aVindia
p4773
aVfavourit cosmet product
p4774
aVoja rajani
p4775
aVhitesh vaswani
p4776
aVaudi enc
p4777
aVastound audienc turnout
p4778
asS'c025c431_in'
p4779
(lp4780
Vspecial instagram
p4781
aVmidweek blue
p4782
aVperson space
p4783
aVtwin
p4784
aVproud parent
p4785
aVraksha bandhan
p4786
aVador
p4787
asS'E_68bca39d'
p4788
(lp4789
Vsimpl thing
p4790
aVpoint polish flat
p4791
aVoutfit
p4792
aVsort cloth
p4793
aVstylish women
p4794
aVwear heel
p4795
aVfashion woman
p4796
aVkit handi
p4797
aVhideou stain
p4798
aVpoplin blous
p4799
asS'5a96b383_in'
p4800
(lp4801
Vprem shamir
p4802
aVbirdwatch hemanth batroy
p4803
aVhigher grassland
p4804
aVmysuru
p4805
aVthrissur
p4806
aVspeci
p4807
aVrathish
p4808
asS'5085c516_in'
p4809
(lp4810
Vssr
p4811
aVpu
p4812
aVmagadh mahila colleg
p4813
aVaccredit
p4814
asS'608576cbede82271d76f2b13b8990d9f_in'
p4815
(lp4816
Vunutilis resourc
p4817
aVhonest firm
p4818
aVproduct resourc
p4819
aVsahoo
p4820
aVpromot eas
p4821
aVnation confer
p4822
aVassocham secretari
p4823
asS'cb18e11f_in'
p4824
(lp4825
Vintern blame game
p4826
aVeffici inform share
p4827
aVregion wide organis
p4828
aVlarg indian dam
p4829
asS'2ecee048c125460d6f22139377ac0a4b_in'
p4830
(lp4831
Veleven
p4832
aVyuvraj
p4833
aVdugout
p4834
asS'72b452de_in'
p4835
(lp4836
Vfir
p4837
aVanticipatori bail
p4838
aVcrore
p4839
aVvariou contract
p4840
aVkandi canal
p4841
aVirrig depart
p4842
asS'ec160a60'
p4843
(lp4844
Vhead
p4845
aVwindchil
p4846
aVwall
p4847
aVdear friend
p4848
aVcnn oh
p4849
aVdelight mysteri object
p4850
asS'4df0b309eb0c3f9e3086cde6b1d77949_in'
p4851
(lp4852
Vkvasini
p4853
aVmodel 3
p4854
aVtesla musk hand
p4855
asS'55b3fda3_in'
p4856
(lp4857
Vganga rejuven
p4858
aVflood forecast station
p4859
aVindia metrolog depart
p4860
aVstate ut nct
p4861
aVcwc
p4862
aVriver water level
p4863
aVsetup
p4864
asS'97a94bd4_in'
p4865
(lp4866
Vsink feel
p4867
aVintern merchant ship
p4868
aVamerican navi incompet
p4869
asS'7ee7dd4532c0141ae49803e9867500fe_in'
p4870
(lp4871
Vpanel
p4872
aVaol site
p4873
aVexpert committe
p4874
aVfloodplain
p4875
aVcompact soil
p4876
asS'544784ce_in'
p4877
(lp4878
Vadreno gpu
p4879
aVseri soc
p4880
aVchip
p4881
aVmid rang smartphon
p4882
aVrumor mill
p4883
aVoctacor configur
p4884
aVpurport technic specif
p4885
asS'189e31404dd9d2f4d05d45b45407ce0a_in'
p4886
(lp4887
Vexclud
p4888
aVtract infect
p4889
aVpleas
p4890
aVhealthi diet
p4891
asS'203e4123_in'
p4892
(lp4893
Vronan
p4894
aV19th centuri artist
p4895
aVwilliam holman hunt
p4896
aVindian
p4897
aVjohn everett millai
p4898
aVuk
p4899
aVmother komal
p4900
asS'7e45c32e'
p4901
(lp4902
Vhead
p4903
aVbabi
p4904
aVwindchil
p4905
aVwall
p4906
aVpre eclampsia complic
p4907
aVplacenta accreta
p4908
aVdear friend
p4909
aVdifficult pregnanc
p4910
aVdelight mysteri object
p4911
asS'8ad659d4973aaa3f5d834d3d13c1458d_in'
p4912
(lp4913
Vdetaine
p4914
aVthroat
p4915
aVdeath
p4916
aVcharl
p4917
asS'71baf83b_in'
p4918
(lp4919
Vheadset
p4920
aVfront face camera
p4921
aVpretti cool design
p4922
aV3d polygon
p4923
aVanti bacteri materi
p4924
aVwindow mix realiti
p4925
aVifa
p4926
aVvisor
p4927
asS'1fddafbb'
p4928
(lp4929
Vmosey ass bitch
p4930
aVhead
p4931
aVkid
p4932
aVwindchil
p4933
aVwall
p4934
aVwhole convers
p4935
aVfb
p4936
aVdear friend
p4937
aVsoap
p4938
aVdelight mysteri object
p4939
asS'be6bedeb'
p4940
(lp4941
Vdear friend
p4942
aVwall
p4943
aVhead
p4944
aVwindchil
p4945
aVdelight mysteri object
p4946
asS'b6db61a577c2cdf1e57f42e7fe40d5a0_in'
p4947
(lp4948
Veaster bunni
p4949
aVecosystem didnt
p4950
aVinvas speci
p4951
asS'eb1d9aec_in'
p4952
(lp4953
Vmax gradel
p4954
aV70th minut
p4955
aVadrien rabiot
p4956
aVstade pierr mauroy
p4957
aVedinson cavani
p4958
aVextraordinari goal
p4959
aVlayvin kurzawa sourc
p4960
asS'b789653c7183e995156f382ba23b258a_in'
p4961
(lp4962
Vspici food
p4963
aVburn sensat
p4964
aVmexican studi
p4965
aVhot chili
p4966
aVstomach cancer
p4967
asS'40606442_in'
p4968
(lp4969
Vthiruvarur
p4970
aVmodern citi
p4971
aVtempl chariot shape
p4972
aVearli seafar conquest
p4973
aVmadra nostalgia descend
p4974
aVroyapettah tram
p4975
asS'00b6fe3e95d5b65703bedf891ff4ca61_in'
p4976
(lp4977
Vfreez dri
p4978
aVspace preserv sperm
p4979
asS'1e314264'
p4980
(lp4981
Voutlet
p4982
aVhead
p4983
aVwindchil
p4984
aVwall
p4985
aVdistribut centr
p4986
aVsector omc
p4987
aVdear friend
p4988
aVdelight mysteri object
p4989
asS'b745cd63ebfc388875a2127f2a3c1464_in'
p4990
(lp4991
Vinsideev report
p4992
ag115
aVinext
p4993
aVi5
p4994
asS'b3954f76b3f531ec66875bdaef8d900a_in'
p4995
(lp4996
Vdoesnt
p4997
aVundergradu student
p4998
aVspecif outcom
p4999
aVgoal set
p5000
aVemploye characterist
p5001
aVeffect depend
p5002
asS'1dd1220c_in'
p5003
(lp5004
Vblack nappa leather
p5005
aVcontrast yellow seatbelt
p5006
aVroland folger
p5007
aVmerced amg gt
p5008
aVindia
p5009
aVrace style seat
p5010
aVnurburgr circuit
p5011
aVgreen hell
p5012
aVpower road car
p5013
aVrear wheel
p5014
asS'cde6b82bb8bec488284da75f6b403226_in'
p5015
(lp5016
Vmiek welvaert
p5017
aVcheap price
p5018
aVcar
p5019
aVdrive market
p5020
aVpopul pressur
p5021
aVfinanc rate
p5022
asS'46010330_in'
p5023
(lp5024
Vworld war ii
p5025
aVproduct capabl
p5026
aVjeep
p5027
aVgener purpos wagon
p5028
aVengin brain
p5029
aVamerican militari
p5030
asS'b5876055_in'
p5031
(lp5032
Vsteeper angl
p5033
aVhousehold readi
p5034
aVsunlight
p5035
aVlicens electrician
p5036
aVelectr system
p5037
aVfantast begin
p5038
aVpower bill
p5039
aVinvert
p5040
aVcorrect size
p5041
asS'ccfd9fbe'
p5042
(lp5043
Vdear friend
p5044
aVwall
p5045
aVhead
p5046
aVwindchil
p5047
aVdelight mysteri object
p5048
asS'855a47c0b29c007f96c04b78b49918a7_in'
p5049
(lp5050
Vpolic
p5051
aVaustralian counter terror
p5052
aVeditori team
p5053
aVsurri hill
p5054
aVsydney suburb
p5055
aVraid
p5056
asS'ff94b427'
p5057
(lp5058
Vhead
p5059
aVwindchil
p5060
aVwall
p5061
aVgenocid
p5062
aVdear friend
p5063
aVdelight mysteri object
p5064
asS'78e674b_in'
p5065
(lp5066
Vhundr peopl
p5067
aVcnn chri cuomo
p5068
aVharvey
p5069
aVdisplac houstonian
p5070
aVlakewood church
p5071
aVlate tuesday morn
p5072
aVcounti shelter
p5073
aVflood
p5074
asS'efbe2ce7fee51a0c5e6b28b2c1a55312_in'
p5075
(lp5076
Vroast beef wrap
p5077
aVcarrot noodl
p5078
aVsummer roll
p5079
aVtuna sandwich
p5080
aVprovenc tuna
p5081
aVnoodl dinner
p5082
aVcool peanut
p5083
asS'91a2968a771f670fe633ed215d7c3041_in'
p5084
(lp5085
Vpanama
p5086
aVani
p5087
asS'd942974e268fd49997c0712744f28e61_in'
p5088
(lp5089
Vbuyer
p5090
aVrid
p5091
aVacn
p5092
aVmodel
p5093
aVfremont
p5094
asS'11f300aa03e3f8884e4aab2ad8b84bf7_in'
p5095
(lp5096
Vparticular type
p5097
aVfamili physicianmay
p5098
aVdoctor diagnos
p5099
aVuteru
p5100
aVultrasound
p5101
asS'848d0e96'
p5102
(lp5103
Vdear friend
p5104
aVwall
p5105
aVhead
p5106
aVwindchil
p5107
aVdelight mysteri object
p5108
asS'e29d4097'
p5109
(lp5110
Vcholi lehenga
p5111
aVshow
p5112
aVdoubl breast jacket
p5113
aVembroid gown
p5114
aVemot movi
p5115
aVbridal trousseau
p5116
asS'84858481'
p5117
(lp5118
Vhead
p5119
aVwindchil
p5120
aVwall
p5121
aVdear friend
p5122
aVmega project
p5123
aVroof
p5124
aVdelight mysteri object
p5125
asS'1f8851d_in'
p5126
(lp5127
Vswami dayanand pandey
p5128
aVharish salv
p5129
aVsadhvi pragya thakur
p5130
aVmanind singh
p5131
aVsuprem court
p5132
aVnia
p5133
aVmaharashtra
p5134
asS'a2c91ed5ceb688767dace31b696c23d4_in'
p5135
(lp5136
sS'355723a903020c29a5d4acaec104ed3c_in'
p5137
(lp5138
Vdaga
p5139
aVkitchen centric model
p5140
aVcloud
p5141
ag115
asS'a2a6b6b994d01cc75949495c966e739b_in'
p5142
(lp5143
Vmissguid buy
p5144
aVwear spring
p5145
aVloyola
p5146
aVsdsm
p5147
asS'2cdc0dd52011be255037d1efa1a18d89_in'
p5148
(lp5149
Vwhole villag
p5150
aVpolish wood
p5151
ag115
aVzdzislaw nikola
p5152
aVraft maker
p5153
asS'5e9fd3b2_in'
p5154
(lp5155
Voveral flood situat
p5156
aVincreas water level
p5157
aVdead crore
p5158
aVmahananda river
p5159
aVmalda district
p5160
asS'2ceceab0_in'
p5161
(lp5162
Vcynthia thomson
p5163
aVrisk
p5164
aVwomen
p5165
aVmetabol dysregul
p5166
aVobes relat cancer
p5167
aVdiet pattern
p5168
aVyummi pizza
p5169
aVfood weight
p5170
asS'a3c28e6b_in'
p5171
(lp5172
Vappl
p5173
aVorigin concept
p5174
aVpair
p5175
aVscript drama seri
p5176
aVfun oddbal
p5177
aVlate late show
p5178
aVformer soni exec
p5179
asS'0f0b86de2e7dcc714041bde71fb13dec_in'
p5180
(lp5181
sS'f57c8e217f6bfef26023bc8e3e622f5e_in'
p5182
(lp5183
Vlegisl move
p5184
aVincludingth taliban
p5185
aVterrorist group
p5186
aVnation secur
p5187
asS'1c5a5dc8e6b533fbb89750e669ee85c8_in'
p5188
(lp5189
Vprovinci polit
p5190
aVsecular caus
p5191
asS'3f4513ed_in'
p5192
(lp5193
Vsympathet nervou system
p5194
aVnobuo sasaki
p5195
aVstudi
p5196
aVnight sleep
p5197
aVischaem diseas
p5198
aVangina
p5199
aVjapan
p5200
aVbrief moment
p5201
aVheart attack
p5202
asS'8cefc3bd_in'
p5203
(lp5204
Vairbu
p5205
aVannual festiv season
p5206
aVadd addit frequenc
p5207
aVdaili flight
p5208
aVbusi class seat
p5209
aVaward win airlin
p5210
asS'24129a3b'
p5211
(lp5212
Vhead
p5213
aVtheatr span
p5214
aVwindchil
p5215
aVwall
p5216
aVveteran director
p5217
aVact
p5218
aVdear friend
p5219
aVdelight mysteri object
p5220
asS'98ddbafd_in'
p5221
(lp5222
Veckhard scholz
p5223
aVherbert diess
p5224
aVpebbl beach concour
p5225
aVproduct
p5226
aVzero emiss deliveri
p5227
aVminibu version
p5228
asS'50b9da45'
p5229
(lp5230
Vcommon knowledg
p5231
aVauto industri
p5232
aVundercov investig
p5233
aVdealer trick
p5234
aVinvoic
p5235
aVunnecessari repair
p5236
aVmainstream news media
p5237
asS'83e359739911c512d5891c8bef3a2734_in'
p5238
(lp5239
Vswallow
p5240
aVbrinkmann
p5241
aVurban suburban area
p5242
aVsediment
p5243
asS'ba27c6ac_in'
p5244
(lp5245
Vtruffl egg tart
p5246
aVlavish lobster spread
p5247
aVla cart
p5248
aVcaptain crunch french
p5249
aVbottomless prosecco
p5250
aVbloodi mari
p5251
aVmimosa
p5252
asS'fe75e11_in'
p5253
(lp5254
Vbangladesh test squad
p5255
aVst lucia star
p5256
aVsemi final spot
p5257
aVpakistan cricket board
p5258
aVproven match winner
p5259
asS'bd764c40_in'
p5260
(lp5261
Vmani plant speci
p5262
aVconserv committe
p5263
aVlahaul spiti
p5264
aVchamba
p5265
aVflorist rich
p5266
aVshimla
p5267
asS'eb049351_in'
p5268
(lp5269
Vshopian
p5270
aVadminaugust
p5271
aVnation
p5272
aVaiadmk faction
p5273
aVseci level offic
p5274
asS'f93ad124_in'
p5275
(lp5276
Vcoffe daili
p5277
aVfood frequenc questionnair
p5278
aVcent lower risk
p5279
aVcaus mortal
p5280
aVwide consum beverag
p5281
aVinvers associ
p5282
aVcup
p5283
aVsociodemograph characterist
p5284
asS'1e2a4986_in'
p5285
(lp5286
Vdelug hit peopl
p5287
aVsituat
p5288
aVdeath toll
p5289
aVpalghar
p5290
aVaffect district
p5291
asS'6f288125'
p5292
(lp5293
Vhead
p5294
aVwindchil
p5295
aVwall
p5296
aVnude liquid lipstick
p5297
aVversatil palett
p5298
aVdear friend
p5299
aVdelight mysteri object
p5300
asS'e295ccc8'
p5301
(lp5302
Vhead
p5303
aVwindchil
p5304
aVwall
p5305
aVaward
p5306
aVdear friend
p5307
aVindian armi decis
p5308
aVdelight mysteri object
p5309
asS'6ec41026_in'
p5310
(lp5311
Vnatur motion
p5312
aVchines court astronom
p5313
aVbehead
p5314
aVscienc
p5315
aVmoon
p5316
aVpaul sutter
p5317
aVancient clay tablet
p5318
aVsun
p5319
asS'1379edf1_in'
p5320
(lp5321
Vcollabor concert
p5322
aVurur olcott kuppam
p5323
aVsocieti
p5324
aVage cast shackl
p5325
aVvisakhapatnam
p5326
aVmarginalis art form
p5327
aVsection
p5328
asS'f908245ca6315a105039d26ceba1bfc4_in'
p5329
(lp5330
Vseat
p5331
aVgovern quota
p5332
aVprivat engin
p5333
aVkea offic
p5334
aVexcess fee
p5335
asS'1ff0255a'
p5336
(lp5337
Vhead
p5338
aVwindchil
p5339
aVlanzhou gansu plant
p5340
aVwall
p5341
aVdear friend
p5342
aVchina popul
p5343
aVsynthet polym product
p5344
aVdelight mysteri object
p5345
asS'19f2fe49238f2463a6d6dd131c42b218_in'
p5346
(lp5347
Vchemic fingerprint
p5348
aVnasa discov
p5349
aVmembran structur
p5350
aVcell membran
p5351
aVacrylonitril molecul
p5352
asS'7e9f8370_in'
p5353
(lp5354
Vpaediatr patient
p5355
aVmental health clinic
p5356
aVgynaecolog nurs
p5357
aVfollow specialis option
p5358
aVadmiss elig
p5359
aVobstetr
p5360
aVmedic care
p5361
aVjob prospect
p5362
asS'c71de3fe818194bfcb72f786d818f9c3_in'
p5363
(lp5364
Vworldwid
p5365
aVcelebr
p5366
asS'ba2ef6d834b0acd146f396db57c73eb7_in'
p5367
(lp5368
Vtariff
p5369
aVcellular
p5370
asS'4986bd67_in'
p5371
(lp5372
Vifrc
p5373
aVxinhua news agenc
p5374
aVmillion peopl
p5375
aVasia pacif region
p5376
aVseriou humanitarian crise
p5377
asS'31017c2b_in'
p5378
(lp5379
Vabsent
p5380
aVwhose result
p5381
aVassess process
p5382
aVmarksheet
p5383
aVmani student
p5384
aVmba mm
p5385
aVadmiss deadlin
p5386
asS'ee29321ce78ed96d0f8772bc7a992804_in'
p5387
(lp5388
Vcourtesi
p5389
ag115
aVbelli bandit haley
p5390
aVnavi patterson
p5391
asS'3ae7335525878a821c3c26d45d97f42b_in'
p5392
(lp5393
Vsimilar
p5394
asS'8353aaa6'
p5395
(lp5396
Vhead
p5397
aVplace
p5398
aVwindchil
p5399
aVplan ban
p5400
aVwall
p5401
aVdear friend
p5402
aVdelight mysteri object
p5403
asS'7b28dcf64bff739323276a61543c423e_in'
p5404
(lp5405
Vshastri
p5406
aVthrice
p5407
aVengin student
p5408
asS'1b0afefb'
p5409
(lp5410
Vfibr
p5411
aVdiet
p5412
aVfruit juic
p5413
aVherbal tea
p5414
aVhealthi snack
p5415
aVexam time
p5416
aVbreakfast
p5417
aVslow steadi releas
p5418
aVcereal bar
p5419
asS'752d919c'
p5420
(lp5421
Vlg
p5422
aVhead
p5423
aVgoogl phone
p5424
aVwall
p5425
aVbootload
p5426
aVdear friend
p5427
aVwindchil
p5428
aVdevic
p5429
aVdelight mysteri object
p5430
aVcustom rom
p5431
asS'cd5a2e5f_in'
p5432
(lp5433
Vsummer activ
p5434
aVhiit class
p5435
aVrodial
p5436
aVsisu
p5437
aVovernight success stori
p5438
aVpain
p5439
aVrecipeswatermelon capres skewer
p5440
asS'8a8078870e3d87391d82d9b305933db2_in'
p5441
(lp5442
Veastern counti
p5443
aVtyphoon
p5444
aVtaiwan
p5445
aVhualien counti
p5446
aVeast coast
p5447
asS'ebd4088fcc2d9a56ef919317a45f2b52_in'
p5448
(lp5449
Vfetu
p5450
aVgirl
p5451
aVgroup
p5452
aVservic main exam
p5453
aVpermiss
p5454
asS'a1c89ac7e502cda4f7e423cdd75e8b3a_in'
p5455
(lp5456
Velectr mixer
p5457
aVkitchen scale
p5458
aVbeaten egg
p5459
aVlemon oliv oil
p5460
aVmix
p5461
aVequal part butter
p5462
aVpowder sugar
p5463
asS'd3fb20ca_in'
p5464
(lp5465
Vbright colour
p5466
aVstylish twist
p5467
aVambani ganpati celebr
p5468
aVexist ethnic wear
p5469
aVoxidis metal jewelleri
p5470
aVfilmi angl
p5471
aVfestiv cheer
p5472
aVmumbai filmyangl bollywood
p5473
aVsimpl style tip
p5474
asS'cbedffd5815ef8b0e5f565623017a6ee_in'
p5475
(lp5476
Vintern threat
p5477
aVnation strategi
p5478
aVdivert terrorist
p5479
aVnon state actor
p5480
asS'fe3561f5'
p5481
(lp5482
Vhead
p5483
aVlove
p5484
aVwindchil
p5485
aVwall
p5486
aVdear friend
p5487
aVdelight mysteri object
p5488
asS'2f8ba538_in'
p5489
(lp5490
Vsignific improv
p5491
aVbusi
p5492
aVyounger firm
p5493
aVeas
p5494
aVnews app
p5495
aVworld bank survey
p5496
aVflutter
p5497
asS'ede5d3b2'
p5498
(lp5499
Vhead
p5500
aVwomen
p5501
aVwall
p5502
aVdear friend
p5503
aVdelight mysteri object
p5504
aVwindchil
p5505
asS'b77aea36'
p5506
(lp5507
Vhead
p5508
aVwindchil
p5509
aVwall
p5510
aVgoaltend sergei bobrovski
p5511
aVdear friend
p5512
aVpenalti killer
p5513
aVdelight mysteri object
p5514
asS'cd86d1185b5c0fc67eb8a3c891f86ee8_in'
p5515
(lp5516
Vmonica
p5517
aVbanist
p5518
aVdate stair banist
p5519
aVincongru
p5520
aVbore entryway
p5521
aVunrecogniz
p5522
asS'a58a31e3_in'
p5523
(lp5524
Vlogic puzzl
p5525
aVlower row
p5526
aVspongebob
p5527
aVadjac number
p5528
aVcoin
p5529
aVbrainteas
p5530
aVcorrect answer
p5531
aVegg
p5532
aVchicken
p5533
aVwrong dice
p5534
asS'46a729a0'
p5535
(lp5536
Vhead
p5537
aVwindchil
p5538
aVwall
p5539
aVdear friend
p5540
aVchief minist
p5541
aVdelight mysteri object
p5542
asS'1e6d69f6'
p5543
(lp5544
Vhuman societi
p5545
aVadmiss shelter
p5546
aVfrontier
p5547
aVcompanion anim rescu
p5548
aVbasner
p5549
aVcoloni
p5550
aValaska
p5551
aVtnr
p5552
aVwrangel trap
p5553
asS'633bd0f467bc2d131614e2549ae1d7c5_in'
p5554
(lp5555
Vcareer
p5556
aVajit
p5557
aVsahibzada
p5558
aVexquisit silk brocad
p5559
aVji
p5560
asS'608679c6f02bf8c6dd48bd624560b01a_in'
p5561
(lp5562
Vbrand valu
p5563
aVsocial follow
p5564
aVmultipl platform
p5565
aVcampaign realli
p5566
aVcompel content
p5567
asS'ab60b4fd'
p5568
(lp5569
Vdear friend
p5570
aVwall
p5571
aVhead
p5572
aVwindchil
p5573
aVdelight mysteri object
p5574
asS'61436912_in'
p5575
(lp5576
Vhimanshu bansal
p5577
aV300cc motorcycl
p5578
aVcamera
p5579
aVbenelli tnt
p5580
aVsuper biker
p5581
aVmandi
p5582
aVkawasaki ninja
p5583
asS'56cb500f_in'
p5584
(lp5585
Vcorrupt free india
p5586
aVagit
p5587
aVlokpal
p5588
aVprime minist
p5589
aVwhistl blower bill
p5590
aVlokayukta
p5591
aVmann ki baat
p5592
aVfarmer
p5593
asS'cdec6df5'
p5594
(lp5595
Vcertain thing
p5596
aVshorter period
p5597
aVtherapist
p5598
aVmani mani option
p5599
aVlauren roth 039
p5600
aVpassion
p5601
aVprofession gambler
p5602
asS'645b3ebb511fe024107df370b6699f65_in'
p5603
(lp5604
Vzeng fanzhi
p5605
asS'4e3319bfca89795b3f0fee07ec7199ec_in'
p5606
(lp5607
Vlunin
p5608
aVsaturn moon
p5609
aVenceladu
p5610
asS'7edb2177'
p5611
(lp5612
Vhead
p5613
aVwindchil
p5614
aVwall
p5615
aVpropos merger
p5616
aVdear friend
p5617
aVdelight mysteri object
p5618
asS'fc3540ce_in'
p5619
(lp5620
Vaugust
p5621
aVcute sweater
p5622
aVpithi commentari
p5623
aVactress
p5624
aVbreak rumor
p5625
aVhot news
p5626
aVmad men
p5627
asS'6ef3ad94'
p5628
(lp5629
Vgurgaon counterpart
p5630
aVhead
p5631
aVmove vehicl
p5632
aVwindchil
p5633
aVwall
p5634
aVmiscreant
p5635
aVdear friend
p5636
aVdelight mysteri object
p5637
asS'a8627bb9_in'
p5638
(lp5639
Vphysic scar
p5640
aVramp
p5641
aVeveri collect
p5642
aVfighter
p5643
aVbreast cancer survivor
p5644
aVdesign techniqu
p5645
asS'347b059b'
p5646
(lp5647
Vspot demand
p5648
aVkg
p5649
aVwindchil
p5650
aVwall
p5651
aVlikewis metal
p5652
aVhead
p5653
aVdear friend
p5654
aVglobal cue
p5655
aVdelight mysteri object
p5656
asS'1f90c65d'
p5657
(lp5658
Vhead
p5659
aVwindchil
p5660
aVwall
p5661
aVms vani
p5662
aVprowl
p5663
aVdear friend
p5664
aVdelight mysteri object
p5665
asS'ad37d66b_in'
p5666
(lp5667
Vwinter festiv
p5668
aVceleb
p5669
asS'f5831277_in'
p5670
(lp5671
Vanti acn endeavor
p5672
aVproper complexion
p5673
aVmani best ingredi
p5674
aVunivers
p5675
aVdiffer product
p5676
aVpoor water content
p5677
aVcoenzym
p5678
aVheavi layer
p5679
aVphysiolog stress
p5680
asS'f4e16006271ed49781180edcbfbdf11b_in'
p5681
(lp5682
Vexpand ministri
p5683
aVminist
p5684
aVbihar chief
p5685
aVbjp led nation
p5686
aVsushil kumar
p5687
asS'49ef8fd19a57a03a26fc4ee31a1f0e45_in'
p5688
(lp5689
Vvacat pictur
p5690
aViifa
p5691
aVblack pair
p5692
aViifa travel
p5693
aVlook
p5694
aVtravel look
p5695
asS'c0bce113_in'
p5696
(lp5697
Vflorenc tan
p5698
aVsaudi arabia
p5699
aVbenchmark grade
p5700
aVrania
p5701
asS'ab9b390e59471d78ea55524dc69a5ba7_in'
p5702
(lp5703
Vclear cach
p5704
aVservic
p5705
aVreset app
p5706
aVfix googl
p5707
aVstop error
p5708
aVcach option
p5709
asS'eb64c9e2_in'
p5710
(lp5711
Vpolic chase
p5712
aVpasseng side tire
p5713
aVrobberi suspect
p5714
aVstolen car speed
p5715
aVeast haven
p5716
aVlincoln mkz
p5717
aVconnecticut coast
p5718
aVgeorg lopez
p5719
aVlyme
p5720
aVtrooper
p5721
asS'22471c87_in'
p5722
(lp5723
Vcanva
p5724
aVdelhi street art
p5725
aVwall
p5726
aVeleph god
p5727
aVbappa
p5728
aVfigur paint
p5729
asS'0d6995653d86721248da9660db0da092_in'
p5730
(lp5731
Vkulli thiarai
p5732
asS'6a2fb26e_in'
p5733
(lp5734
Vhmt coloni road
p5735
aVhyderabad
p5736
aVvacant
p5737
aVdescript
p5738
aVview job
p5739
aVelig candid
p5740
aVuttar pradesh
p5741
asS'e420a101'
p5742
(lp5743
Vsocial media
p5744
aVhead
p5745
aVwindchil
p5746
aVsheeran shape
p5747
aVwall
p5748
aVed
p5749
aVvideo
p5750
aVdear friend
p5751
aVdelight mysteri object
p5752
asS'd511959137ae920c1ec373c39289f82b_in'
p5753
(lp5754
Vtrip
p5755
aVauthor articl list
p5756
aVadventur
p5757
asS'1b423a79_in'
p5758
(lp5759
Vcrucial thing
p5760
aVcanisiu colleg
p5761
aVsciencedaili
p5762
aVhoffman
p5763
aVstudi dog respond
p5764
aVcat 1
p5765
aVsound
p5766
aVkitti
p5767
asS'4a1ec69a98f72183391f8f97ce48e4cc_in'
p5768
(lp5769
Vdefect
p5770
aVraolji
p5771
aVgamit
p5772
aVmla
p5773
asS'9f26633b_in'
p5774
(lp5775
Vmotiv
p5776
aVlife
p5777
aVconcert
p5778
aVmusician
p5779
aVmusic
p5780
aVsinger
p5781
aVdocumentari film
p5782
asS'72403fde'
p5783
(lp5784
Vhead
p5785
aVwindchil
p5786
aVrenew
p5787
aVwall
p5788
aVleast trademark
p5789
aVdear friend
p5790
aVbusi deal
p5791
aVdelight mysteri object
p5792
asS'E_2214fc11'
p5793
(lp5794
Vhead
p5795
aVwindchil
p5796
aVwall
p5797
aVsweet histori
p5798
aVoscar date
p5799
aVmom instinct
p5800
aVdear friend
p5801
aVdelight mysteri object
p5802
asS'2c71d4fb_in'
p5803
(lp5804
Vage
p5805
aVvan gogh paint
p5806
aVinaccur stereotyp
p5807
aVrandom nois
p5808
aVdisembodi eye
p5809
aVself esteem
p5810
aVbug illustr
p5811
asS'66042640_in'
p5812
(lp5813
Villeg foreign
p5814
aVflood
p5815
aVcitizenship act
p5816
aVnation calam
p5817
aVhm
p5818
asS'd322737f'
p5819
(lp5820
Vhead
p5821
aVsenior member
p5822
aVwindchil
p5823
aVwall
p5824
aVfelicit
p5825
aVdear friend
p5826
aVinaugur test match
p5827
aVdelight mysteri object
p5828
asS'e78be47f_in'
p5829
(lp5830
Vgiuditta scalini
p5831
aVwar year
p5832
aVmilan
p5833
aVsaint tropez
p5834
aVpiero fornasetti
p5835
asS'99d24173_in'
p5836
(lp5837
Vromelu lukaku
p5838
aVjose mourinho
p5839
aVpretti disappoint season
p5840
aVgoal
p5841
aVpremier leagu
p5842
aVfrenchman
p5843
asS'fd281dc45c3623e5170afdca1587ee3f_in'
p5844
(lp5845
Vfloodplain
p5846
aVrear wheel drive
p5847
aVseedl
p5848
asS'ce8c0b83'
p5849
(lp5850
Vdear friend
p5851
aVwall
p5852
aVhead
p5853
aVwindchil
p5854
aVdelight mysteri object
p5855
asS'7419e609eec6f39a265d8d1223735fd3_in'
p5856
(lp5857
Vutil
p5858
aVrbi
p5859
asS'221194304984db71618adafc1103fe17_in'
p5860
(lp5861
Velectr car
p5862
aVearli buyer
p5863
asS'ce2193a8a98b7a9c3d2620522df6b83d_in'
p5864
(lp5865
Vscrubber
p5866
aVexfoli
p5867
asS'8dffea31339e2c7c13fb334a1564f0cc_in'
p5868
(lp5869
Vdough doughnut
p5870
aVcooki
p5871
aVbrowni batter
p5872
aVwhite chocol raspberri
p5873
aVbuttercream
p5874
aVenough fill
p5875
asS'a42d06c1_in'
p5876
(lp5877
Vpayment option
p5878
aVconsol
p5879
aVuser
p5880
aVcredit card
p5881
aVfutur purchas
p5882
aVdetach control
p5883
aVpaypal
p5884
asS'0fb32b9d690c007c770e85784bb1b3c7_in'
p5885
(lp5886
Vguildhal
p5887
aVtheatr
p5888
aVtheatr compani
p5889
aVswedlund
p5890
aVwind penguin
p5891
aVioana
p5892
aVpenguin
p5893
asS'529997679023141cda81deeff229ccf9_in'
p5894
(lp5895
Vzealandia contin
p5896
aVcontin
p5897
aVscientist
p5898
asS'd8d393aa_in'
p5899
(lp5900
Vlivestock develop
p5901
aVzonat diseas
p5902
aVbiolog product
p5903
aVsheep husbandri
p5904
aVanim health
p5905
aVkashmir divis
p5906
asS'327b2d89_in'
p5907
(lp5908
Vilt stadium southland
p5909
aVcreativ student
p5910
aVtayla muir
p5911
aVmel larsen
p5912
aVfiordland
p5913
aVmedium
p5914
asS'215d82059cbc100a38ad3240b9458fca_in'
p5915
(lp5916
Vthing millenni entrepreneur
p5917
asS'a81183ca_in'
p5918
(lp5919
Vwall motor
p5920
aVicon jeep brand
p5921
aValarm bell
p5922
aVhand
p5923
aVglobal car industri
p5924
aVwhite
p5925
asS'b1432699'
p5926
(lp5927
Vhead
p5928
aVwindchil
p5929
aVcustom paint car
p5930
aVwall
p5931
aVlb ft
p5932
aVdear friend
p5933
aV6th avenu garag
p5934
aVdelight mysteri object
p5935
asS'a3fac3f7'
p5936
(lp5937
Vrigor imprison
p5938
aVwindchil
p5939
aVwall
p5940
aVhead
p5941
aVtribal woman
p5942
aVdear friend
p5943
aVdelight mysteri object
p5944
asS'80246d798d37fdf10698cc5716b4327d_in'
p5945
(lp5946
Vmukund
p5947
aVdhawan
p5948
aVgall
p5949
aVunremark
p5950
aVpujara
p5951
asS'f503f59417c9a773654bcd3cd308a106_in'
p5952
(lp5953
Vcomfi bed
p5954
aVgoop clean beauti
p5955
aVeveri
p5956
aVsleep
p5957
aVhuffington
p5958
asS'2217117098478c8ee2c010c25ebe4fb6_in'
p5959
(lp5960
Ventir databas
p5961
aVswedish data
p5962
aVsweden secur
p5963
aVibm cloud
p5964
aVtransport author
p5965
aVbreach reveal
p5966
asS'5fdefda2ef0175386d3a75ec2670b7e0_in'
p5967
(lp5968
Vdeath toll
p5969
aVdam
p5970
aVflood situat
p5971
aVsituat improv
p5972
aVrajasthan
p5973
aVdvc releas
p5974
asS'b65649ba61b87711620d738ecb8d5f42_in'
p5975
(lp5976
Vdaddi win
p5977
asS'4643c2de_in'
p5978
(lp5979
Vcancer relat death
p5980
aVdiseas
p5981
aVseed husk wax
p5982
aVavocado pit
p5983
aVpower nutrient
p5984
aVcvd
p5985
aVmedicin compound
p5986
aVfact sheet
p5987
asS'8d3d672d_in'
p5988
(lp5989
Vdandelion seed
p5990
aVceram coat
p5991
aVkingfish cocklebur pod
p5992
aVmateri resorpt
p5993
aVbone tissu
p5994
aVnamibian beetl
p5995
aVimplant glass
p5996
asS'd77a8cc5792a7c122fe73b2f9e14c20a_in'
p5997
(lp5998
Vdhak
p5999
aVmgc
p6000
asS'18690027641d7472e319069ec600f6fb_in'
p6001
(lp6002
Vscrub
p6003
aVclockwis
p6004
aVacn
p6005
asS'f4700884'
p6006
(lp6007
Vhead
p6008
aVwindchil
p6009
aVwall
p6010
aVremain citi
p6011
aVexecut board meet
p6012
aVdear friend
p6013
aVcandidatur procedur
p6014
aVdelight mysteri object
p6015
asS'0a21b8d8b8c982df63e9490f9219a4c4_in'
p6016
(lp6017
Vcurrent acn treatment
p6018
aVarmrest
p6019
aVrear
p6020
aVaxl
p6021
aVsign
p6022
asS'4d52ee592e42c36e07f60b21d62bf2da_in'
p6023
(lp6024
Vextra secur
p6025
aVmalcolm turnbul
p6026
aVthwart aircraft
p6027
asS'2aff10a9_in'
p6028
(lp6029
Vpassport control
p6030
aVinfluenti consum group
p6031
aVbaggag drop
p6032
aVcustom servic train
p6033
aVpopular leisur rout
p6034
aVtermin park
p6035
aVlow cost seat
p6036
aVuk
p6037
aVdsa
p6038
asS'1a96aa31'
p6039
(lp6040
Vhead
p6041
aVnm
p6042
aVwall
p6043
aVtorqu
p6044
aVbhp
p6045
aVwindchil
p6046
aVdear friend
p6047
aVseventh gener model
p6048
aVdelight mysteri object
p6049
asS'4b35e12a'
p6050
(lp6051
Vhead
p6052
aVwindchil
p6053
aVwall
p6054
aVdear friend
p6055
aVfilm teaser
p6056
aVdelight mysteri object
p6057
asS'9192ef3c3db26f652218eccecebe909c_in'
p6058
(lp6059
Vfavorit tour stori
p6060
aVaraya
p6061
aVdrummer
p6062
aVrain blood
p6063
aVblood
p6064
aVthunder
p6065
asS'8d4391a0'
p6066
(lp6067
Vdad
p6068
aVhead
p6069
aVwindchil
p6070
aVwall
p6071
aVbabi boy
p6072
aVdear friend
p6073
aVdelight mysteri object
p6074
asS'462d1097_in'
p6075
(lp6076
Vsever previou studi
p6077
aVgreater scientif knowledg
p6078
aVplenti evid
p6079
aVgenet modifi food
p6080
aVclimat chang
p6081
aVscienc literaci
p6082
aVscientist
p6083
aVpolit
p6084
aVgener educ
p6085
aVcell research
p6086
asS'92ac020e'
p6087
(lp6088
Vhead
p6089
aVwindchil
p6090
aVwall
p6091
aVap
p6092
aVdear friend
p6093
aVdelight mysteri object
p6094
asS'98fe6798_in'
p6095
(lp6096
Vqualcomm qsd8250 snapdragon
p6097
aVmm
p6098
aVv2 1
p6099
aVgb
p6100
aVsimilar
p6101
aVwi fi
p6102
aVpixel
p6103
aVcortex a53
p6104
asS'93704a71'
p6105
(lp6106
Vtwelv team
p6107
aVhead
p6108
aVprize
p6109
aVwall
p6110
aVwindchil
p6111
aVdear friend
p6112
aVdelight mysteri object
p6113
asS'd43df71a'
p6114
(lp6115
Vsimilar
p6116
aVwi fi hotspot
p6117
aVtouch focu
p6118
aVv4 2
p6119
aVjelli bean
p6120
aVgb
p6121
aVquad core ghz
p6122
aVsim
p6123
asS'38f3960b_in'
p6124
(lp6125
Vaeo
p6126
aVunveil
p6127
aVnikola motor compani
p6128
aVcummin
p6129
aVelectrifi powertrain
p6130
aVelectr semi truck
p6131
aVengin firm roush
p6132
asS'e1ecf146a40050907d815ba68d4f5587_in'
p6133
(lp6134
Vgirl
p6135
aVclarif
p6136
aVpermiss
p6137
asS'96d5d34e'
p6138
(lp6139
Vdear friend
p6140
aVwall
p6141
aVhead
p6142
aVwindchil
p6143
aVdelight mysteri object
p6144
asS'4e858031_in'
p6145
(lp6146
Vaustralian super seri
p6147
aVng tsz yau
p6148
aVsaina nehwal
p6149
aVsergey sirant 13
p6150
aVtam chun hei
p6151
aV2nd round
p6152
aVsatwiksairaj rankireddi
p6153
asS'cd0f10a'
p6154
(lp6155
Vsalari
p6156
aVhead
p6157
aVwindchil
p6158
aVwall
p6159
aVpakistani arab
p6160
aVmid career
p6161
aVdear friend
p6162
aVdelight mysteri object
p6163
asS'3b0fa7cf'
p6164
(lp6165
Vhead
p6166
aVwindchil
p6167
aVwall
p6168
aVsputnik news agenc
p6169
aVrescuer
p6170
aVdear friend
p6171
aVdelight mysteri object
p6172
asS'5e210c9db44c894c6eda325ad406d32e_in'
p6173
(lp6174
Vdeduct
p6175
aVdeposit
p6176
asS'c0d0dd0e'
p6177
(lp6178
Vhead
p6179
aVdrama
p6180
aVwindchil
p6181
aVtire
p6182
aVwall
p6183
aVchyna
p6184
aVdear friend
p6185
aVdelight mysteri object
p6186
asS'5333297e_in'
p6187
(lp6188
Vlaneig
p6189
aVbodi shop
p6190
aVjojoba wax
p6191
aVmarin collagen
p6192
aVdread eye bag
p6193
aVsleep circular
p6194
aVbusi bride
p6195
aVtang vivoc
p6196
aVdelic skin
p6197
asS'eb7de9de_in'
p6198
(lp6199
Vexpens bottl
p6200
aVbasic tip
p6201
aVcork
p6202
aVglass
p6203
aVbrownish hue
p6204
aVteeth
p6205
aVsommeli smart
p6206
asS'1b79c8dd_in'
p6207
(lp6208
Vsiddharth nagar
p6209
aVlakh peopl
p6210
aVbalrampur
p6211
aVballia
p6212
aVaffect district
p6213
aVlakhimpur kheri
p6214
aVdanger mark
p6215
asS'14fda714'
p6216
(lp6217
Vhead
p6218
aVwindchil
p6219
aVwall
p6220
aVlocal daili sabq
p6221
aVdear friend
p6222
aVdelight mysteri object
p6223
asS'2a11d4ce_in'
p6224
(lp6225
Vsuperintend aurora lora
p6226
aVwhite nationalist ralli
p6227
aVconfeder name
p6228
aVcharlottesvil
p6229
aVschool
p6230
aVoklahoma citi
p6231
aVafrican american popul
p6232
aVgolfer lee trevino
p6233
aVmiguel soli
p6234
asS'd0f45ea9_in'
p6235
(lp6236
Vread
p6237
aVcheim
p6238
aVappropri art
p6239
aVformalist precept
p6240
aVclement greenberg
p6241
asS'627cc520_in'
p6242
(lp6243
Vhuge illeg haul
p6244
aVsanta cruz
p6245
aVisla darwin isla
p6246
aVvessel
p6247
aVarmada del ecuador
p6248
aVboat
p6249
aVpelayo salina
p6250
asS'ac81f68c_in'
p6251
(lp6252
Vyorker
p6253
aVinner art connoisseur
p6254
aVceil light
p6255
aVwooden floorboard
p6256
aVwall
p6257
aVpictur frame
p6258
aVstair
p6259
aVsize
p6260
asS'fa3950c4_in'
p6261
(lp6262
Vpsychiatr sanatorium
p6263
aVartist career
p6264
aVpalau nacion
p6265
aVintern exhibit
p6266
aVmodern art
p6267
aVbloomingdal
p6268
aVhorrif natur
p6269
aVtragic end
p6270
asS'eec25808'
p6271
(lp6272
Vhead
p6273
aVwindchil
p6274
aVbranch readi level
p6275
aVwall
p6276
aVupdat
p6277
aVdear friend
p6278
aVsecret set
p6279
aVadvanc option link
p6280
aVdelight mysteri object
p6281
asS'4f9ec2ab9cdf347749cce728a66c0b59_in'
p6282
(lp6283
Vlegisl council
p6284
aVbsp mlc
p6285
aVsp mlc
p6286
aVbjp minist
p6287
asS'01cf887b75a8bed83c25aceb039a34ee_in'
p6288
(lp6289
Vremain
p6290
aVplane crash
p6291
aVair plane
p6292
aVcrash
p6293
asS'aa43b697_in'
p6294
(lp6295
Vtribal art
p6296
aVqutab minar roundabout
p6297
aVupcom jlf boulder
p6298
aVbhil
p6299
aVexhibit
p6300
aVfolklor
p6301
aVmytholog
p6302
asS'ddc00b0be50aa9aaa2653dbb6afe8c7e_in'
p6303
(lp6304
Vdeath toll
p6305
aVflood hit bengal
p6306
aVghatal
p6307
aVtoll
p6308
asS'5e6cebc5ac38db694a1732701fb29048_in'
p6309
(lp6310
Vgoff
p6311
aVwsr
p6312
asS'2fb2628f'
p6313
(lp6314
Vhead
p6315
aVwindchil
p6316
aVwall
p6317
aVgarbag dump
p6318
aVhighest qualiti water
p6319
aVdear friend
p6320
aVdelight mysteri object
p6321
asS'dd2ed432_in'
p6322
(lp6323
Vdissatisfact
p6324
aVnonunion member
p6325
aVjob perform
p6326
aVindividu attribut
p6327
aVworkplac satisfact
p6328
aVresearch
p6329
aVemploye remuner
p6330
aVbetter work condit
p6331
aVunion worker
p6332
aVmeta studi
p6333
asS'6b5554ac845d3aa3ef0477c7b76259c5_in'
p6334
(lp6335
Vmask burglar strike
p6336
aVoperatorship
p6337
aVfloor
p6338
aVex railway employe
p6339
asS'706491dc'
p6340
(lp6341
Vhead
p6342
aVsoni imx378 sensor
p6343
aVwall
p6344
aVdear friend
p6345
aVdelight mysteri object
p6346
aVwindchil
p6347
asS'36efe1ae3efa9ab61ed7f2d9d29568e8_in'
p6348
(lp6349
Vround allot
p6350
aVchowdhuri
p6351
aVneet seat
p6352
asS'f05d43ac'
p6353
(lp6354
Vhead
p6355
aVwindchil
p6356
aVsmartphon batteri
p6357
aVwall
p6358
aVwallet
p6359
aVdear friend
p6360
aVdelight mysteri object
p6361
asS'7e26c74'
p6362
(lp6363
Vhead
p6364
aVunsightli spider vein
p6365
aVwindchil
p6366
aVwall
p6367
aVdeadliest snake quiz
p6368
aVtumblr level
p6369
aVphoto
p6370
aVdear friend
p6371
aVdelight mysteri object
p6372
asS'6cb9bde5_in'
p6373
(lp6374
Vmoney
p6375
aVlankan
p6376
aVchina
p6377
aVchines
p6378
aVadvers geopolit consequ
p6379
asS'1fe7b079_in'
p6380
(lp6381
Vbodi
p6382
aVlakm fashion week
p6383
aVhair color
p6384
aVdenim shirt dress
p6385
aVheight weight
p6386
aVyesteryear bollywood star
p6387
asS'3c7745b04252f4a8c1ab4bbb986734ff_in'
p6388
(lp6389
Vscert
p6390
asS'1bbea403132a7c81e32a9dc3b68efd37_in'
p6391
(lp6392
Vamarnath yatra
p6393
asS'781ff886bafff295536c9b6dd4324615_in'
p6394
(lp6395
Vearth scienc
p6396
aVcrew member
p6397
aVexpedit
p6398
asS'5827edc6'
p6399
(lp6400
Vhead
p6401
aVwindchil
p6402
aVlabour issu
p6403
aVwall
p6404
aVdear friend
p6405
aVgm
p6406
aVdelight mysteri object
p6407
asS'9cb958ab30a36a829ef4281c842d9b66_in'
p6408
(lp6409
Vextens research
p6410
aVdiseas affect tissu
p6411
asS'8bed2994'
p6412
(lp6413
Vhead
p6414
aVwindchil
p6415
aVbentley type
p6416
aVwall
p6417
aVcrore
p6418
aVdebt restructur
p6419
aVdear friend
p6420
aVinvestor
p6421
aVdelight mysteri object
p6422
asS'327d882_in'
p6423
(lp6424
Vpremis
p6425
aVnon convent energi
p6426
aVenvironment pollut
p6427
aVsolar power project
p6428
aVmonthli electr bill
p6429
asS'8b7385b7_in'
p6430
(lp6431
Vbodi
p6432
aVlauren clare
p6433
aVliz letchford
p6434
aVmuscl imbal
p6435
aVlactic acid
p6436
aVmess
p6437
aVfoam roller
p6438
aVpopsugar
p6439
asS'13d27c2a'
p6440
(lp6441
Vbodi
p6442
aVhead
p6443
aVwindchil
p6444
aVpeopl
p6445
aVwall
p6446
aVwhatev want
p6447
aVdear friend
p6448
aVdelight mysteri object
p6449
asS'2cd693f238b938d4d3bcacdfc006eb30_in'
p6450
(lp6451
Vinterim resolut profession
p6452
aVaccess
p6453
aVpulkit srivastav
p6454
asS'4b33b5bcf2d52e5c88b28f92db20cea0_in'
p6455
(lp6456
Vtribut
p6457
aVartist
p6458
asS'974188ed'
p6459
(lp6460
Vhead
p6461
aV590
p6462
aVwall
p6463
aVwindchil
p6464
aVdear friend
p6465
aVvc na vt
p6466
aVdelight mysteri object
p6467
asS'9e832bb7d9600df39bab849a2a3b9a20_in'
p6468
(lp6469
Vpanel
p6470
aVaol site
p6471
aVexpert committe
p6472
aVfloodplain
p6473
aVcompact soil
p6474
asS'1ee9fce845c2c630119fe89e2e743011_in'
p6475
(lp6476
Vvw chief
p6477
aVaddit report
p6478
aVexecut rupert
p6479
aVmanag reshuffl
p6480
aVsupervisori board
p6481
aVaudi chief
p6482
asS'763e1f945a6c1a0c3e282349d059fcb3_in'
p6483
(lp6484
Vtsh
p6485
aVconsult
p6486
aVserver
p6487
aVserver diarreah
p6488
aVsurgeon
p6489
aVchandrak
p6490
asS'c3973c088c5a0d8e79d5721c9246ec87_in'
p6491
(lp6492
Vbetter relationship
p6493
aVtech
p6494
aVqualtric accel
p6495
aVaccel
p6496
aVsurpris reason millenni
p6497
asS'c323470f_in'
p6498
(lp6499
Vcambril
p6500
aVmorocco arrest
p6501
aVspanish secur forc
p6502
aVmoroccan
p6503
aVdeadli twin attack
p6504
aVinterior
p6505
asS'6520a129734b445e69e31e0850612fa2_in'
p6506
(lp6507
sS'5a69d736_in'
p6508
(lp6509
Vrelat surveil devic
p6510
aVfriday warrant applic
p6511
aVar
p6512
aVron wyden
p6513
aVtarget phone
p6514
asS'd5395172'
p6515
(lp6516
Vhead
p6517
aVwindchil
p6518
aVaustralian destane aiava
p6519
aVnine unforc error
p6520
aVwall
p6521
aVdear friend
p6522
aVround match
p6523
aVdelight mysteri object
p6524
asS'045426b695edd0c51bdccba1b1459a38_in'
p6525
(lp6526
Vsay michael clark
p6527
aVrevenu share deal
p6528
aVtheaustralian player
p6529
aVpay
p6530
asS'ce4166c16b5e1b07792fd0b1e78fb69e_in'
p6531
(lp6532
Vtravel agent
p6533
aVleisur travel
p6534
aVhann slabber
p6535
aVafrican tourism
p6536
aVleisur tourist
p6537
asS'e1701f7_in'
p6538
(lp6539
Vpopular babi hippo
p6540
aVgape hole
p6541
aVcincinnati zoo
p6542
aVenviron
p6543
aVinternet video seri
p6544
aVtorrenti rain
p6545
aVgulf coast
p6546
asS'dce37771_in'
p6547
(lp6548
Vhouston
p6549
aVincred precipit accumul
p6550
aVwater vapor condens
p6551
aVtropic cyclon
p6552
aVrain
p6553
aVoffici rainfal forecast
p6554
aVgulf coast
p6555
aVweather predict center
p6556
aVrecord set flood
p6557
asS'1e58dedf'
p6558
(lp6559
Vcountri cricket board
p6560
aVwindchil
p6561
aVwall
p6562
aVhead
p6563
aVdear friend
p6564
aVdelight mysteri object
p6565
asS'5c966a22d74c1a4bd34bb417fdbde46a_in'
p6566
(lp6567
Vpolic offici
p6568
aVkuldeep yadav
p6569
aVsenior polic
p6570
aVarm men
p6571
aVsatish yadav
p6572
asS'4f20e365ec9e1de7d34a6dd9f118c0d3_in'
p6573
(lp6574
Vmotorcycl brand
p6575
aVrenk unit
p6576
aVsupervisori board
p6577
aVvw sale
p6578
aVboard support
p6579
asS'6b6bf161'
p6580
(lp6581
Vhead
p6582
aVwindchil
p6583
aVwall
p6584
aVincreas inflow
p6585
aVdear friend
p6586
aVworld news
p6587
aVoutstand oblig
p6588
aVdelight mysteri object
p6589
asS'eae60555ce450242030b8fedcb9df1b8_in'
p6590
(lp6591
Vmahabharata author
p6592
aVbook
p6593
aVmytholog stori
p6594
aVgenr peopl
p6595
aVpatel book
p6596
asS'd78d8a9b_in'
p6597
(lp6598
Vcall better orgasm
p6599
aVtherapist lauri mintz
p6600
aVstudi
p6601
asS'b3920c0a_in'
p6602
(lp6603
Vhighest standard
p6604
aVcell phone abil
p6605
aVblinds4u inc
p6606
aVbitcoin art galleri
p6607
aVexquisit piec
p6608
aVlive space
p6609
aVinsuffici focu
p6610
aVtool
p6611
aVatmospher modif
p6612
asS'8cc1f59c'
p6613
(lp6614
Vwhite tea face
p6615
aVwindchil
p6616
aVwall
p6617
aVmask
p6618
aVhead
p6619
aVanti age properti
p6620
aVdear friend
p6621
aVdelight mysteri object
p6622
asS'410eceb9'
p6623
(lp6624
Vhead
p6625
aVexempt
p6626
aVwindchil
p6627
aVwall
p6628
aVpowerloom unit
p6629
aVcloth bleach
p6630
aVdear friend
p6631
aVdelight mysteri object
p6632
asS'8b8c717e_in'
p6633
(lp6634
Voliv oil
p6635
aVhealthier unsatur fat
p6636
aVintak
p6637
aVirrit stomach
p6638
aVboil veget
p6639
asS'5339e17d_in'
p6640
(lp6641
Vhonour guest
p6642
aVdr mari goradia
p6643
aVindia
p6644
aVentrepreneur award
p6645
asS'e1c395b8_in'
p6646
(lp6647
Vgorgeou emerald ear
p6648
aVgiambattista valli coutur
p6649
aVkiller black stiletto
p6650
aVsheer infus gown
p6651
aVstella mccartney
p6652
aVmet gala
p6653
aVred carpet
p6654
aVmcqueen savag beauti
p6655
aVedgi fashion choic
p6656
asS'23dc5ccf_in'
p6657
(lp6658
Vpaint order
p6659
aVbypass surgeri
p6660
aVbackdrop work
p6661
aVsecur guard
p6662
aVpmc coloni
p6663
aVpainter
p6664
aVsadashiv peth
p6665
asS'b8390a506e653fc6efcf62ea2e95cdb4_in'
p6666
(lp6667
Vinning
p6668
aVinning
p6669
asS'E_fc06939b'
p6670
(lp6671
Vsearch result
p6672
aVearli sketch
p6673
aVcreativ bloq 039
p6674
aVlogo design inspir
p6675
aVconsciou mind
p6676
aVrandom doodl
p6677
aVsingl mood board
p6678
aVdiffer idea
p6679
asS'5debf6c2'
p6680
(lp6681
Vhead
p6682
aVbigger threat
p6683
aVwall
p6684
aVdear friend
p6685
aVdelight mysteri object
p6686
aVwindchil
p6687
asS'ccb8e7f0'
p6688
(lp6689
V3g hsdpa
p6690
aVcandybar
p6691
aVwi fi hotspot
p6692
aVgb brows similar
p6693
aVandroid os
p6694
aVli ion batteri
p6695
aVhtc desir
p6696
aVmm jack
p6697
aVqualcomm snapdragon
p6698
asS'2ea1eedd'
p6699
(lp6700
Vstrict regul
p6701
aVlabel
p6702
aVnutrit valu
p6703
aVpet parent
p6704
aVraw ingredi
p6705
aVgreg aldrich
p6706
aVpup bowl
p6707
asS'c44ef461'
p6708
(lp6709
Vhead
p6710
aVwindchil
p6711
aVwall
p6712
aVextern antenna
p6713
aVdear friend
p6714
aVwifi
p6715
aVmovi
p6716
aVdelight mysteri object
p6717
asS'192d8dd314c098cd4b251cce71e75174_in'
p6718
(lp6719
Vblood vessel
p6720
aVrisk
p6721
asS'bbeb0115_in'
p6722
(lp6723
Vhamilton polic
p6724
aVcash tray
p6725
aVcigarett
p6726
aVmetal bar
p6727
aVstation wagon
p6728
aVfront glass door
p6729
aVsergeant ray malcolmson
p6730
asS'6bdc894f'
p6731
(lp6732
Vhead
p6733
aVwindchil
p6734
aVwall
p6735
aVpetticoat materi
p6736
aVblous fabric
p6737
aVdear friend
p6738
aVdelight mysteri object
p6739
asS'd76721c273e56f6a0110f0f6affc1bcd_in'
p6740
(lp6741
Vhike
p6742
aVfee
p6743
aVcommitte member
p6744
aVstate govern
p6745
aVtirupathi rao
p6746
aVhyderabad school parent
p6747
asS'5c8a8876_in'
p6748
(lp6749
Vodi
p6750
aVtwenty20
p6751
aVsquad
p6752
asS'5fe7a172_in'
p6753
(lp6754
Vlargest batteri pack
p6755
aVmile run
p6756
aVlow roll resist
p6757
aVblister 25mph cruis
p6758
aVitalian
p6759
aVaircon pump
p6760
aVrang anxieti
p6761
aVsingl charg
p6762
asS'bb800beffd224ce55f10d4b2ef6163ca_in'
p6763
(lp6764
Vdivert terrorist
p6765
aVcommun effort
p6766
aVmr akbaruddin
p6767
aVnation strategi
p6768
aVnation
p6769
aVintern threat
p6770
asS'4783caec'
p6771
(lp6772
Vhead
p6773
aVwindchil
p6774
aVwall
p6775
aVmovi
p6776
aVdear friend
p6777
aVsaba
p6778
aVdelight mysteri object
p6779
asS'e026b14d'
p6780
(lp6781
Vhead
p6782
aVwindchil
p6783
aVwall
p6784
aVdrama
p6785
aVdear friend
p6786
aVoath
p6787
aVdelight mysteri object
p6788
asS'1ad1f5ce_in'
p6789
(lp6790
Vdr robin jacobson
p6791
aVmom
p6792
aVstudi
p6793
aVsafe
p6794
aVnyu langon health
p6795
aVafrican american mother
p6796
asS'874a410e'
p6797
(lp6798
Vhead
p6799
aVwindchil
p6800
aVtrial begin
p6801
aVwall
p6802
aVdear friend
p6803
aVdelight mysteri object
p6804
asS'6c9a432dc95db0453c48770ccf762265_in'
p6805
(lp6806
Vsong
p6807
aVaddit track
p6808
aVstarr get meta
p6809
asS'dd735721_in'
p6810
(lp6811
Voverflow river water
p6812
aVmalda district
p6813
aVassam
p6814
aVgujarat
p6815
aVflood affect state
p6816
aVdakshin dinajpur
p6817
asS'd221c1d1_in'
p6818
(lp6819
Vwti
p6820
aVmarin ecosystem
p6821
aVcochin shipyard
p6822
aVsacr heart colleg
p6823
aVendang speci
p6824
asS'ccce4c63'
p6825
(lp6826
Vdear friend
p6827
aVwall
p6828
aVhead
p6829
aVwindchil
p6830
aVdelight mysteri object
p6831
asS'ddb8f29181ae2ed6c580841e6cb04ebd_in'
p6832
(lp6833
Vcisf personnel
p6834
aVjnu student
p6835
aVjawaharl nehru
p6836
aVmetro station
p6837
aVsecur forc
p6838
asS'a865bad2_in'
p6839
(lp6840
Vislamabad
p6841
aVwar torn countri
p6842
aVdonald trump 039
p6843
aVforeign polici magazin
p6844
asS'c017c389_in'
p6845
(lp6846
Vbruschetta sauc
p6847
aVmango slice
p6848
aVmandarin orang chicken
p6849
aVcarn asad autentica
p6850
aVjoe
p6851
aVred ale tj 039
p6852
aVmediterranean hummu
p6853
aVdark chocol
p6854
aVpeanut butter
p6855
asS'aac1238934f0ae865be84b4c93d54157_in'
p6856
(lp6857
Vamit shah
p6858
aVheadless dog
p6859
aVfoul
p6860
aVdecapit bodi
p6861
aVdog
p6862
aVpolic offici
p6863
asS'3465520a'
p6864
(lp6865
Vhead
p6866
aVwindchil
p6867
aVwall
p6868
aVfashion choic
p6869
aVdear friend
p6870
aVdelight mysteri object
p6871
asS'53145e8670722e37470727615f602b62_in'
p6872
(lp6873
Vpencil
p6874
aVpro
p6875
aVappl pencil
p6876
aVinch version
p6877
aVipad pro
p6878
aVmacbook pro
p6879
aVinch
p6880
aVvideo consumpt devic
p6881
asS'ccf38bef3c9b386834f651c442f47d4e_in'
p6882
(lp6883
Vjul
p6884
aVdiwali open
p6885
aVconstruct compani
p6886
asS'1d90e3d0cb6f87d774622571f9675a1e_in'
p6887
(lp6888
Vsister
p6889
aVcommerci bollywood
p6890
aVplayback singer
p6891
aVdirector singer himesh
p6892
asS'35a9390c7420bcf6fd17c4ec16b2cfae_in'
p6893
(lp6894
Vcarney
p6895
aVmusic
p6896
aVduski synth pop
p6897
aVpop
p6898
asS'71c4e04a24eebe91dc9239b675b8955b_in'
p6899
(lp6900
Vsc st commun
p6901
aVcoco outlet
p6902
aVoil minist
p6903
aVgovern
p6904
aVallot letter
p6905
aVdharmendra pradhan
p6906
aVretail outlet
p6907
aVpetrol pump
p6908
asS'19281863_in'
p6909
(lp6910
Vnandhyal elect
p6911
aVjagan
p6912
aVresign
p6913
aVrajya sabha chairman
p6914
aVmp
p6915
aVmla
p6916
aVtdp high command
p6917
aVysr congress
p6918
asS'ba48a920_in'
p6919
(lp6920
Vsever dish
p6921
aVhead
p6922
aVwindchil
p6923
aVwall
p6924
aVbitt munch
p6925
aVdear friend
p6926
aVnorthern italian flair
p6927
aVlebanes meza appet
p6928
aVdelight mysteri object
p6929
asS'5c3d3b0_in'
p6930
(lp6931
Valfa romeo
p6932
aVchines
p6933
aVwang fengi
p6934
aVwall
p6935
aVgrand wagon
p6936
aVautomot news
p6937
aVsepar compani
p6938
aVsergio marchionn
p6939
asS'f1c7bc3e_in'
p6940
(lp6941
Vballist missil
p6942
aVpacif ocean
p6943
aVthaad
p6944
aVpre market trade
p6945
aVnorth korea 039
p6946
aVstock
p6947
asS'34c9c819db928cfb00e4789a67038f05_in'
p6948
(lp6949
Voptic zoom
p6950
aVgalaxi note
p6951
aVleak
p6952
aVfocu point
p6953
aVimag system
p6954
aVcamera featur
p6955
asS'4c94fadc1c3dccd236cc27e5fcba6a6d_in'
p6956
(lp6957
Vroch
p6958
aValp
p6959
aVglacier
p6960
aVhuman
p6961
aVcrash
p6962
asS'be80552842af9c4d7309aa41025fcb95_in'
p6963
(lp6964
Vchocol hot
p6965
aVcrumbl recip
p6966
aVtri true recip
p6967
aVcake lemon
p6968
asS'4cf83709'
p6969
(lp6970
Vpolic inact
p6971
aVwindchil
p6972
aVwall
p6973
aVhead
p6974
aVtree
p6975
aVdear friend
p6976
aVdelight mysteri object
p6977
asS'd0f83452f69a992c12470a921d73a5ae_in'
p6978
(lp6979
Vrecov paint
p6980
aVtoi
p6981
aVretir
p6982
aVexecut director
p6983
aVmiss jatin
p6984
aVmiss paint
p6985
asS'b6916f1c'
p6986
(lp6987
Vhead
p6988
aVwindchil
p6989
aVwall
p6990
aVinnat human monster
p6991
aVdear friend
p6992
aVdirectori debut
p6993
aVdelight mysteri object
p6994
asS'af44498954dff167339595aded2951e9_in'
p6995
(lp6996
Vadvanc pyongyang
p6997
aVsay north korea
p6998
aVnuclear strike capabl
p6999
aVkorean leader
p7000
asS'15617a9b_in'
p7001
(lp7002
Vlife
p7003
aVpolic station
p7004
aVgirl note
p7005
aVpalayamkottai
p7006
aVharass
p7007
aVteacher
p7008
aVsuicid spread
p7009
asS'37890d7507eec070a2ed172503d4eb10_in'
p7010
(lp7011
Vjul
p7012
aVstate govern
p7013
ag115
ag115
aVgst conclav
p7014
asS'154dd262'
p7015
(lp7016
Vhead
p7017
aVwindchil
p7018
aVfood
p7019
ag115
aVsign
p7020
aVoverr scenario
p7021
aVdear friend
p7022
aVwall
p7023
aVdelight mysteri object
p7024
asS'ca4d2373'
p7025
(lp7026
Vcrore
p7027
aVwindchil
p7028
aVwasteland
p7029
aVwall
p7030
aVmani project
p7031
aVhead
p7032
aVdear friend
p7033
aVdelight mysteri object
p7034
asS'34beb8cf_in'
p7035
(lp7036
Vciti base artist
p7037
aVgoddess
p7038
aVnatraj gali
p7039
aVdurga puja
p7040
aVdak bungalow
p7041
aVlow profit
p7042
aVclay idol
p7043
asS'b9e0614b'
p7044
(lp7045
Vhead
p7046
aVwindchil
p7047
aVwall
p7048
aVnine match
p7049
aVdear friend
p7050
aVfifa deleg
p7051
aVjawaharl nehru
p7052
aVdelight mysteri object
p7053
asS'3e0a94d4'
p7054
(lp7055
Vhead
p7056
aVwindchil
p7057
aVwall
p7058
aVuncl brother
p7059
aVteenag
p7060
aVdear friend
p7061
aVdelight mysteri object
p7062
asS'67cbf3fb2aa903214eaab92c96122b94_in'
p7063
(lp7064
Vdeepen cooper
p7065
aVminist sign
p7066
aVaction
p7067
aVbric industri
p7068
aVchina hangzhou
p7069
aVmiao wei
p7070
asS'5e016aa0'
p7071
(lp7072
Vbodi
p7073
aVhead
p7074
aVwindchil
p7075
aVweight
p7076
aVwall
p7077
aVpre scale
p7078
aV3d scan
p7079
aVdear friend
p7080
aVdelight mysteri object
p7081
asS'a0ae459c'
p7082
(lp7083
Vhead
p7084
aVwindchil
p7085
aVwall
p7086
aVmic
p7087
aVpower suppli
p7088
aVcommon choic
p7089
aVdear friend
p7090
ag115
aVdelight mysteri object
p7091
asS'3e55b10ad963b31bc321ee3d1956eb75_in'
p7092
(lp7093
Vcoimbator
p7094
aVhealthi famili
p7095
aVcent parent
p7096
aVenergi boost
p7097
asS'd5ac3c274cea01a35c6e8d26bba9406d_in'
p7098
(lp7099
Vkotkapura
p7100
aVrajindera sen
p7101
asS'9a2e1b10'
p7102
(lp7103
Vhead
p7104
aVwindchil
p7105
aVwall
p7106
aVexcess exfoli
p7107
aVnutrit rich diet
p7108
aVskip ad
p7109
aVwinter hot water
p7110
aVdear friend
p7111
aVdelight mysteri object
p7112
asS'd2a3e47f65721ec2c1163a99c66b5ac1_in'
p7113
(lp7114
Vfundament
p7115
aVimf
p7116
aVcurrent level
p7117
aVdesir polici
p7118
asS'df993dcc514f6fa1ad8ee22dff688541_in'
p7119
(lp7120
Vbairstow
p7121
aVmorkel
p7122
aVjul
p7123
aVbavuma
p7124
aVrabada
p7125
aVphiland
p7126
asS'81a7b0a7986363aed05f2b58a2a695a5_in'
p7127
(lp7128
Vcucumb toner
p7129
aVuv radiat
p7130
aVdiseas
p7131
aVsugar
p7132
asS'8905fe847a8de147fd80c85bba08455a_in'
p7133
(lp7134
Vpolic battalion
p7135
aVrussian reconcili
p7136
aVmilitari polic
p7137
aVbattalion
p7138
asS'36ac2a8df6cf5696a25b2f1e4dfbb184_in'
p7139
(lp7140
Vstudent
p7141
aVtutori
p7142
aVexam
p7143
aVregistr
p7144
asS'35b3c57c5b3f14e1f4f5b3639551fd3b_in'
p7145
(lp7146
Vbodi
p7147
aVstrong effect
p7148
aVenough water
p7149
asS'830808c0'
p7150
(lp7151
Vwall walk
p7152
aVshoulder blade
p7153
aVplank hold
p7154
aVhead tap
p7155
aVsuffici core stabil
p7156
aVbear crawl
p7157
aVupper bodi strength
p7158
asS'11e8d153_in'
p7159
(lp7160
Vart galleri
p7161
aVvedut
p7162
aVarchitectur capriccio
p7163
aVnorth carolina museum
p7164
aVangelo fontana
p7165
aVmaria della salut
p7166
asS'96e124b_in'
p7167
(lp7168
Vcal fire
p7169
aVhome
p7170
aVorovil
p7171
aVfast move wildfir
p7172
aVnoah berger
p7173
aVbutt counti
p7174
aVmandatori evacu
p7175
aVdisplac resid
p7176
aVlocal media
p7177
asS'74573273'
p7178
(lp7179
Vcontrol
p7180
aVhead
p7181
aVwindchil
p7182
aVwall
p7183
aVongo fcc auction
p7184
aVdear friend
p7185
aVdelight mysteri object
p7186
asS'6b34f8f0_in'
p7187
(lp7188
Vearl maiz
p7189
aVlinda spilker
p7190
aVspacecraft ion
p7191
aVjet propuls laboratori
p7192
aVcassini
p7193
aVmission end dive
p7194
aVatmospher composit
p7195
aVsaturn
p7196
aVdestruct
p7197
asS'34a47c93'
p7198
(lp7199
Vhead
p7200
aVfellow local busi
p7201
aVwall
p7202
aVdear friend
p7203
aVdelight mysteri object
p7204
aVwindchil
p7205
asS'b1a229090761d111459465f488d9ad2c_in'
p7206
(lp7207
Vpak envoy
p7208
aVissu
p7209
aVdialogu key
p7210
asS'11b1ceb955ff8644c7feb2ff16c53f7c_in'
p7211
(lp7212
Vjaipur polic
p7213
aVbodi
p7214
aVwoman
p7215
aVpolic station
p7216
aVdie
p7217
aVtrain
p7218
asS'59401b01'
p7219
(lp7220
Vhead
p7221
aVdragon queen
p7222
aVwindchil
p7223
aVwall
p7224
aVwearabl art
p7225
aVuniqu photoshoot experi
p7226
aVdear friend
p7227
aVdelight mysteri object
p7228
asS'8fe43512d409ed28e3701ef4df06043e_in'
p7229
(lp7230
Vmla son
p7231
aVsaffron parti
p7232
aVparti mla
p7233
aVbjp leader
p7234
asS'c2df4cce323580096490cafa31bd1af4_in'
p7235
(lp7236
Vpti fire photojournalist
p7237
ag115
aVnews
p7238
ag115
ag115
asS'946be764_in'
p7239
(lp7240
Vteam member
p7241
aVdeep technic skill
p7242
aVhealth check
p7243
aVbest practic guidanc
p7244
aVsupport need
p7245
aVdemand busi solut
p7246
aVapplic environ
p7247
asS'cfadd4ae'
p7248
(lp7249
V327
p7250
aVwindchil
p7251
aVwall
p7252
aVhead
p7253
aVdear friend
p7254
aVdelight mysteri object
p7255
asS'2e3ef80c822305e19fe23a9227b89d1e_in'
p7256
(lp7257
Vword secular
p7258
aVpolit ideolog
p7259
aVplural soul
p7260
asS'123932da785cb94dfb7138334e0cadc2_in'
p7261
(lp7262
Vkannada prabha
p7263
aVcourt
p7264
aVmalleswaram bjp
p7265
aVvictim
p7266
aVstate
p7267
aVrv colleg
p7268
asS'da13c28e3210d3f0addd66850f34ca17_in'
p7269
(lp7270
Vremain
p7271
aVai flight
p7272
aVplane crash
p7273
aVmont blanc
p7274
aVgeneva flight
p7275
asS'adbd0fdcc2945c533d0520dac04ff1f2_in'
p7276
(lp7277
Vlemon
p7278
aVface pack
p7279
aVstomach disord
p7280
aVmfr
p7281
aVcold water
p7282
ag115
aVgram flour
p7283
aVtesla model
p7284
asS'294344951a622f97849e442850c36bac_in'
p7285
(lp7286
Vbillion nepali rupe
p7287
aVinvest pledg
p7288
asS'aee126d66fb944755d66119572116f84_in'
p7289
(lp7290
Vwater level
p7291
aVriver embank
p7292
aVevacu peopl
p7293
asS'4ece64ef'
p7294
(lp7295
Vhead
p7296
aVwindchil
p7297
aVwall
p7298
aVeduc relat news
p7299
aVdear friend
p7300
aVissu
p7301
aVdelight mysteri object
p7302
asS'6fcaebf5'
p7303
(lp7304
Vhead
p7305
aVwindchil
p7306
aVwall
p7307
aVdear friend
p7308
aVminor girl
p7309
aVdelight mysteri object
p7310
asS'3f7aeeb1_in'
p7311
(lp7312
Vpain
p7313
aVmumbai
p7314
aVfit studio
p7315
aVweak abdomin muscl
p7316
aVforward trunk flexion
p7317
aVinjuri
p7318
aVfunction exercis
p7319
asS'7a814dcc534fe79cce4942f3c4775d7c_in'
p7320
(lp7321
Vtravel
p7322
asS'2d0df1bfd36a226d1fa1978e915ca397_in'
p7323
(lp7324
Vpimpl
p7325
aVtrack weak recoveri
p7326
asS'9177163d'
p7327
(lp7328
Vhead
p7329
aVmilit
p7330
aVwall
p7331
aVcrucial water sourc
p7332
aVdamascu governor
p7333
aVwindchil
p7334
aVdear friend
p7335
aVdelight mysteri object
p7336
asS'd5198d28_in'
p7337
(lp7338
Vnusli wadia
p7339
aVcompani
p7340
aVtata group
p7341
aVindian
p7342
aVboard evalu
p7343
aVindepend director
p7344
asS'57dfc8cd98a02d7fbf966741c905464d_in'
p7345
(lp7346
Vford team
p7347
aVteam matter
p7348
aVexclud
p7349
aVslc
p7350
asS'fed92158_in'
p7351
(lp7352
Vvision merced maybach
p7353
aVcabriolet
p7354
aVdesign cue
p7355
aVbonnet
p7356
aVdinner
p7357
aVluxuri
p7358
aVextravag superyacht
p7359
asS'ed59fb258873074726367d4af94f8c86_in'
p7360
(lp7361
Vvariou awar programm
p7362
aVvijaya
p7363
aVzoo
p7364
asS'1b66d3f88d81c5cbc94da5a77d583c46_in'
p7365
(lp7366
Vtet
p7367
aVpaper
p7368
aVgov
p7369
aVfinal key
p7370
aVcgg
p7371
asS'aeb8d4812577d901acf44ed189a45be5_in'
p7372
(lp7373
Vangina
p7374
aVpatient
p7375
aVdiagnosi
p7376
aVintermountain
p7377
asS'191c2cfa_in'
p7378
(lp7379
Vshore casino
p7380
aVgoa
p7381
aVelect code
p7382
aVbypol
p7383
aVaguada sand bar
p7384
aVquick action
p7385
asS'5da846cf'
p7386
(lp7387
Vhead
p7388
aVwindchil
p7389
aVexcav
p7390
aVphoto
p7391
aVcave
p7392
aVdear friend
p7393
aVwall
p7394
aVdelight mysteri object
p7395
asS'1a95fee1_in'
p7396
(lp7397
Vdefenc deal
p7398
aVprime minist
p7399
aVcorpor tourist
p7400
aVindian busi travel
p7401
aVhassan madah
p7402
aVtourism
p7403
asS'41d939f8_in'
p7404
(lp7405
Vposit patient
p7406
aVbhilwara
p7407
aVh1n1 viru
p7408
aVadvers weather condit
p7409
asS'4d6aebef_in'
p7410
(lp7411
Vupcom visit
p7412
aVterm solut
p7413
aVprime minist abe
p7414
aVchines
p7415
aVindian ocean
p7416
aVborder friction
p7417
asS'6d51f7e6_in'
p7418
(lp7419
Vnadja schildknecht
p7420
aVbafta
p7421
aVoscar nomin star
p7422
aVreal life drama
p7423
aVhacksaw ridg
p7424
asS'2355b91ffbf605c08aab352f9a14020c_in'
p7425
(lp7426
Vbillion fine
p7427
aVadsens
p7428
aVvestag
p7429
asS'5c749fe4_in'
p7430
(lp7431
Vsqueez
p7432
aVhandstand posit
p7433
aVhilaria baldwin 039
p7434
aVinstagram prove
p7435
aVjul
p7436
aVfit advoc
p7437
aVbiggest exercis fan
p7438
aVleg lift
p7439
asS'65802aec_in'
p7440
(lp7441
Vbabo
p7442
aVfranc ocean dodin
p7443
aVcanadian eugeni bouchard
p7444
aVgrand slam match
p7445
aVviktorija golub
p7446
aVrussian evgeniya rodina
p7447
aVsimona halep
p7448
aVbattl
p7449
asS'b86b1f70dd5c8524e64e60fda0e1a56f_in'
p7450
(lp7451
Vcreativ instagram
p7452
aVbrand share
p7453
aVmedia platform
p7454
aVsocial
p7455
asS'6e6bdcac_in'
p7456
(lp7457
Vincreas bilirubin level
p7458
aVdiffer light condit
p7459
aVperson sclera
p7460
aVcomput vision algorithm
p7461
aVmachin learn tool
p7462
aV3d print box
p7463
aVnake eye
p7464
asS'8ac3cb5f_in'
p7465
(lp7466
Vvariou corner
p7467
aVtourist guid
p7468
aVhistor travel lover
p7469
aVindentur indian worker
p7470
aVvisitor
p7471
aVbest way
p7472
aVmuthi market
p7473
aVmose mabhida stadium
p7474
asS'9eaad2ae'
p7475
(lp7476
Vresult
p7477
aVtenni miami men singl
p7478
aVwindchil
p7479
aVwall
p7480
ag115
aVhead
p7481
aVdear friend
p7482
aVdelight mysteri object
p7483
asS'1853cd64_in'
p7484
(lp7485
Vquirki rainbow jacket
p7486
aVwinter collect
p7487
aVcelebr
p7488
aVshimmer dress
p7489
aVmanish malhotra 039
p7490
asS'c8b9c0b14232a43dcf3c2055d36c26e3_in'
p7491
(lp7492
Vbhattad
p7493
aVparadsinga
p7494
aVchastiti
p7495
asS'b86d6d48_in'
p7496
(lp7497
sS'216006d12d738b8bd14bd9f5d2aca510_in'
p7498
(lp7499
Vradio address
p7500
aVminist devendra
p7501
aVbaat
p7502
aVlaunch book
p7503
asS'4dc9568e_in'
p7504
(lp7505
Vexpector properti
p7506
aVspice
p7507
aVpower medicin compound
p7508
aVcold
p7509
aVanti inflammatori agent
p7510
aVmonsoon relat diseas
p7511
aVcough
p7512
aVsore throat
p7513
asS'be1fb10f_in'
p7514
(lp7515
Vbubbl dream
p7516
aVacadem calendar
p7517
aVssa
p7518
aVgovt
p7519
aVimphal
p7520
aVeduc
p7521
aVinspect system
p7522
asS'd7b0bb5f'
p7523
(lp7524
Vhead
p7525
aVwindchil
p7526
aVwall
p7527
aVdear friend
p7528
aVwainganga river
p7529
aVdelight mysteri object
p7530
asS'2b3ee7ac35ddb41d8a7edcc28e467af1_in'
p7531
(lp7532
Vdecapit bodi
p7533
aVheadless dog
p7534
aVstate
p7535
aVrawat
p7536
aVfoul
p7537
aVamit shah
p7538
aVdog
p7539
aVpolic offici
p7540
asS'2728df6a_in'
p7541
(lp7542
Vsavana deliveri
p7543
aVhurrican harvey 039
p7544
aVgmc terrain
p7545
aVbuick verano
p7546
aVdomest auto industri
p7547
aVtroubl
p7548
aVgener motor
p7549
aVgm vehicl sale
p7550
asS'03ab4f02f94e677c757098f15f486069_in'
p7551
(lp7552
Vjojoba oil
p7553
aVnatur ingredi
p7554
aVversatil use
p7555
aVgranular sugar
p7556
aVcucumb toner
p7557
aVsugar mix
p7558
asS'8aa0a74b_in'
p7559
(lp7560
Vadvers obstetr histori
p7561
aVproper mother fetu
p7562
aVdelhi
p7563
aVoptimum medic ca
p7564
aVmatern casualti
p7565
aVgynecologist
p7566
aVbest obstetrician
p7567
asS'f11e1ff'
p7568
(lp7569
Vhead
p7570
aVwindchil
p7571
aVfine art
p7572
aVwall
p7573
aVphoto
p7574
aVteacher
p7575
aVdelight mysteri object
p7576
aVdear friend
p7577
aVtroll
p7578
aVmagnum pi
p7579
asS'5d4062e5b9053b8740decd52fa1b8ca5_in'
p7580
(lp7581
Vkerala architectur
p7582
aVgoddess durga
p7583
aVtourist
p7584
aVfall
p7585
asS'd9826970'
p7586
(lp7587
Vhead
p7588
aVwindchil
p7589
aVwall
p7590
aVdesign trend
p7591
aVcrafti diy project
p7592
aVeveri day
p7593
aVdear friend
p7594
aVthing
p7595
aVdelight mysteri object
p7596
asS'cc2f7a73'
p7597
(lp7598
Vwet plaster
p7599
aVwindchil
p7600
aVabstract design
p7601
aVwall
p7602
aVhead
p7603
aVdear friend
p7604
aVhistori
p7605
aVdelight mysteri object
p7606
asS'2ab5f0200a434102ce91571fda0404a5_in'
p7607
(lp7608
Vscert
p7609
asS'4d070d00'
p7610
(lp7611
Vhead
p7612
aVwindchil
p7613
aVblizzard
p7614
aVwall
p7615
aVdear friend
p7616
aVbritish thermal unit
p7617
aVwinter storm
p7618
aVdelight mysteri object
p7619
asS'a29c68da'
p7620
(lp7621
Vportugues newspap
p7622
aVwindchil
p7623
aVwall
p7624
aVhead
p7625
aVdear friend
p7626
aVdelight mysteri object
p7627
asS'026a0c69f957e90ab9e3e304b207eace_in'
p7628
(lp7629
Vroad
p7630
asS'2cd6923b'
p7631
(lp7632
Vhead
p7633
aVwindchil
p7634
aVlower limb
p7635
aVwall
p7636
aVabu dhabi
p7637
aVdear friend
p7638
aVmid term
p7639
aVdelight mysteri object
p7640
asS'32d040bac915bdafacda7758de7753a4_in'
p7641
(lp7642
Vlen
p7643
aVrussia
p7644
aVsedat
p7645
asS'b23e5ac5_in'
p7646
(lp7647
Vwalk
p7648
aVrisk
p7649
aVoveral physic fit
p7650
aVbrisk walker
p7651
aVmiddl age peopl
p7652
aVpace
p7653
aVmortal
p7654
asS'e8e9d22f_in'
p7655
(lp7656
Vmillion simul imag
p7657
aVgravit lens
p7658
aVtradit analysi method
p7659
aVstanford univers
p7660
aVsingl comput unit
p7661
aVastrophys journal letter
p7662
aVslac
p7663
aVconvolut neural network
p7664
asS'd029c1f6abcfb94b72f7ff0b88165a54_in'
p7665
(lp7666
Vmicrobiolog laboratori
p7667
aVsever peopl
p7668
aVinfect
p7669
aVmexico
p7670
aVlab coat
p7671
asS'57c1936bb0342549966f9970568fdc6a_in'
p7672
(lp7673
Vfda panel
p7674
aVdata support
p7675
aVsafeti
p7676
aVdynavax hepat
p7677
aVvaccin
p7678
asS'e7f4ab7a'
p7679
(lp7680
Vhead
p7681
aVtenni doubl
p7682
aVwall
p7683
aVactress turn columnist
p7684
aVmarriag
p7685
aVwindchil
p7686
aVdear friend
p7687
aVdelight mysteri object
p7688
asS'7ead3d73'
p7689
(lp7690
Vhead
p7691
aVkid
p7692
aVwall
p7693
aVwindchil
p7694
aVreward style affili
p7695
aVdear friend
p7696
aVadult size
p7697
aVgirl
p7698
aVdelight mysteri object
p7699
asS'6f72cf3a17afe7a56355e7ecef56210a_in'
p7700
(lp7701
Vhyperthread
p7702
asS'94c4ae64'
p7703
(lp7704
Vdear friend
p7705
aVwall
p7706
aVhead
p7707
aVwindchil
p7708
aVdelight mysteri object
p7709
asS'9306cf79030eb2aaf948627a5478db7e_in'
p7710
(lp7711
Vview job
p7712
aVsingh ji school
p7713
aVindefinit
p7714
aVsahibzada
p7715
asS'25aa6cba'
p7716
(lp7717
Vleftov metabol wast
p7718
aVdeeper stretch
p7719
aVthing
p7720
aVnick clayton
p7721
aVconsum protein
p7722
aVgetti
p7723
aVeveri workout
p7724
aVcompress cloth
p7725
aVfoam roller
p7726
aVcool
p7727
asS'9fc7cb86'
p7728
(lp7729
Vhead
p7730
aVwindchil
p7731
aVwall
p7732
aVlouisvil courier journal
p7733
aVdear friend
p7734
aVdelight mysteri object
p7735
asS'E_c2bac599'
p7736
(lp7737
Vhead
p7738
aVholiday hand
p7739
aVwindchil
p7740
aVwall
p7741
aVvalentin
p7742
aVcoupl chemistri
p7743
aVdear friend
p7744
aVdelight mysteri object
p7745
asS'1868c6b821dd55467778a8e738b0ab25_in'
p7746
(lp7747
Vstate govern
p7748
aVhenc
p7749
aVtax offici
p7750
aVmizoram
p7751
asS'261b8c3b_in'
p7752
(lp7753
Vshout
p7754
aVbali
p7755
asS'337bf3ea_in'
p7756
(lp7757
Vfir
p7758
aVrigor imprison
p7759
aVwoman
p7760
aVindian penal code
p7761
aVmen
p7762
aVmanju shah
p7763
aVmother
p7764
aVinspector kailash yadav
p7765
asS'7267ee10_in'
p7766
(lp7767
Vwest indi side
p7768
aVclive lloyd
p7769
aVdarren lehmann
p7770
aVmick de brenni
p7771
aVbrisban courier mail
p7772
aVstump
p7773
aVqueensland
p7774
aVgabba curat mitchel
p7775
asS'90bb20b3a5f3ea847cc049681b5d020d_in'
p7776
(lp7777
Vstudent
p7778
aVbold berri lip
p7779
aVkriger
p7780
aVcampaign
p7781
asS'41c8b4c1'
p7782
(lp7783
Vuntitl biopic
p7784
aVhead
p7785
aVwindchil
p7786
aVwall
p7787
aVyouth
p7788
aVdear friend
p7789
aVdelight mysteri object
p7790
asS'893763ff_in'
p7791
(lp7792
Vkonkan railway
p7793
aVsafe mumbairain
p7794
aVheavi rain
p7795
aVbollywood celebr
p7796
asS'3dbe29c1_in'
p7797
(lp7798
Vbank system
p7799
aVdemonetis note
p7800
aVsp leader
p7801
aVmotion
p7802
aVfinanc ministri
p7803
aVjunk currenc
p7804
aVlakh crore
p7805
asS'ddcdeddba8ece33ef24cd17005539816_in'
p7806
(lp7807
Vkamil
p7808
aVforeign entri
p7809
aVemin
p7810
aVinstitut
p7811
asS'0a34eccd4ea1d76bd0fcdfc1945ba4ab_in'
p7812
(lp7813
Vinflat data
p7814
aVsingl week rise
p7815
aVpercent
p7816
aVsuppli
p7817
asS'b1ee3f61_in'
p7818
(lp7819
Vearth smack bang
p7820
aVfifa biggest event
p7821
aVudit sheth
p7822
aVdefunct abad dairi
p7823
aVnarendra modi
p7824
asS'06c0cbe4bbd27cc69e79a6a87270790c_in'
p7825
(lp7826
Vbukkal
p7827
aVnawab
p7828
asS'65d16a3d9646ba5eb13ea9ebc963876d_in'
p7829
(lp7830
Vcontrol mice
p7831
aVcontrol group
p7832
aVinsulin resist
p7833
aVhffd egcg group
p7834
aVhffd treat mice
p7835
asS'1e5f09e577c58d502e538ba228075e38_in'
p7836
(lp7837
Vnitabach
p7838
aVsex drive
p7839
aVcourtship
p7840
aVfemal sex
p7841
asS'b7c72a17'
p7842
(lp7843
Vhead
p7844
aVwindchil
p7845
aVwall
p7846
aVtwitter
p7847
aV28th
p7848
aVdear friend
p7849
aVproduct car
p7850
aVdelight mysteri object
p7851
asS'c2afa832_in'
p7852
(lp7853
Vqualiti educ
p7854
aVcompetit market
p7855
aVsarva shiksha abhiya
p7856
aVjaw drop ratio
p7857
aVeveri children
p7858
aVrajasthan
p7859
aVuniqu learn capac
p7860
aVprolifer privat school
p7861
aVteacher pupil
p7862
asS'2e0e2fb4'
p7863
(lp7864
Vplayer pablo aguilar
p7865
aVwindchil
p7866
aVdemand
p7867
aVwall
p7868
aVhead
p7869
aVdear friend
p7870
aVdelight mysteri object
p7871
asS'c2118e2d'
p7872
(lp7873
Vhead
p7874
aVrashmika father
p7875
aVwall
p7876
aVwindchil
p7877
aVdear friend
p7878
aVname
p7879
aVdelight mysteri object
p7880
asS'f8594a9a9daef6455e14497dfef7dec6_in'
p7881
(lp7882
Vremain
p7883
aVplane crash
p7884
asS'b6d22b6e979592412d32f49934728609_in'
p7885
(lp7886
Vlord shiva
p7887
aVpitchavaram backwat
p7888
aVcarv danc
p7889
aVchit sabha
p7890
asS'9ed603eb_in'
p7891
(lp7892
Vmile rang
p7893
aVwork
p7894
aVself drive featur
p7895
aVcummin
p7896
aVenergi divers product
p7897
aVaeo semi truck
p7898
aVelectr motor
p7899
aVkwh batteri pack
p7900
aVurban hauler tractor
p7901
asS'cbf0309a9a80e3999f02892c4a01b859_in'
p7902
(lp7903
Vpaddi field
p7904
aVsick eleph
p7905
aVforest offici
p7906
aVtrain hit
p7907
asS'9b6c1fcc'
p7908
(lp7909
Vhead
p7910
aVwindchil
p7911
aVwall
p7912
aVgerman automak request
p7913
aVdiesel emiss scandal
p7914
aVsuit
p7915
aVdear friend
p7916
aVdelight mysteri object
p7917
asS'f31215926eb56e648a2fc960bf92129f_in'
p7918
(lp7919
Vweekli chart
p7920
aVapprox
p7921
aVdma
p7922
aVbank nifti hourli
p7923
aVweekli cci
p7924
aVdaili technic
p7925
aVpresent fall
p7926
aVdaili adx
p7927
aVmarket price
p7928
asS'ca4c9c5c1d7a64861e403c64845078b1_in'
p7929
(lp7930
Vproduct car
p7931
aVseat speedster
p7932
aVcoup concept
p7933
asS'32788cdc_in'
p7934
(lp7935
Vkeypath educ
p7936
aVonlin platform
p7937
aVmooc aggreg site
p7938
asS'07999ebedbe3b9d8ca4d067496b962c6_in'
p7939
(lp7940
Vusd
p7941
aVchines
p7942
asS'70f7dfe5_in'
p7943
(lp7944
Vprincess sarah sister
p7945
aVworld wealthiest ruler
p7946
aVroyal duck collect
p7947
aVlimit edit scarv
p7948
aVmalaysian
p7949
aVfashion valet
p7950
aVhit hijab line
p7951
asS'7ec260a_in'
p7952
(lp7953
Vnation elig cum
p7954
aVaugust
p7955
aVoffici websit
p7956
aVdental
p7957
aVstep
p7958
aVseat matrix
p7959
aVadmiss
p7960
asS'912ebefd4ac938cf027b72bd3a5dfce9_in'
p7961
(lp7962
Viraqi soldier
p7963
aVnzdf trainer
p7964
aVsecur train
p7965
aVzealand australian forc
p7966
aVtactic
p7967
aVtrain mission
p7968
asS'9a345721_in'
p7969
(lp7970
Vfifteen rare rhino
p7971
aVnation park
p7972
aVroyal bengal tiger
p7973
aVhog deer
p7974
aVsarbanand sonow dispens
p7975
aVrhinoceros
p7976
asS'8e319fe618ad470ae957933bf607ba3b_in'
p7977
(lp7978
Vghz kryo
p7979
aVoneplu
p7980
aVmbp
p7981
aVfingerprint sensor
p7982
aVgb ram64 128
p7983
aVface smile detect
p7984
aVlcd capacit touchscreen
p7985
asS'9419ceba_in'
p7986
(lp7987
Vlalu
p7988
aVmamata banerje
p7989
aVnon bjp leader
p7990
aVpatna
p7991
aVbsp supremo
p7992
asS'20689eed'
p7993
(lp7994
Vlakh
p7995
aVrequisit permiss
p7996
aVhead
p7997
aVwindchil
p7998
aVwall
p7999
aVdear friend
p8000
aVdelight mysteri object
p8001
asS'a715071b'
p8002
(lp8003
Vdear friend
p8004
aVwall
p8005
aVhead
p8006
aVwindchil
p8007
aVdelight mysteri object
p8008
asS'3071b9a5253a60a1b5d5cb51d08e0841_in'
p8009
(lp8010
Veye cream
p8011
aVnoni glow oil
p8012
asS'd1c23d5f'
p8013
(lp8014
Vhead
p8015
aVwindchil
p8016
aVcompens mechan
p8017
aVwall
p8018
aVrajya sabha approv
p8019
aVdear friend
p8020
aVdelight mysteri object
p8021
asS'db7cd646'
p8022
(lp8023
Vcrore
p8024
aVhead
p8025
aVwindchil
p8026
aVwall
p8027
aVmark
p8028
aVdear friend
p8029
aVdelight mysteri object
p8030
asS'e7cd3c225a026e4cca7314fa7a547411_in'
p8031
(lp8032
Vpictur think
p8033
aVinspir vision
p8034
aVhacker way
p8035
asS'931ace57'
p8036
(lp8037
Vdelhi polic claim
p8038
aVhead
p8039
aVcourt
p8040
aVwindchil
p8041
aVwall
p8042
aVbomb
p8043
aVdear friend
p8044
aVdelight mysteri object
p8045
asS'2902d28d0ef2bc4b6160571b690cf789_in'
p8046
(lp8047
Vwed
p8048
asS'63cb60d3_in'
p8049
(lp8050
Vtourism problem
p8051
aVlapu lapu
p8052
aVquezon citi
p8053
aVelizabeth gregorio
p8054
aVgokongwei
p8055
asS'1e84c1549977cd5fb3ac44704e84525a_in'
p8056
(lp8057
Vgb ramexpand
p8058
aVbrows similar
p8059
aVtouch focu
p8060
aVcdma version4g
p8061
aVcdma version3g
p8062
aVlcd capacit touchscreen
p8063
asS'11d5bf85'
p8064
(lp8065
Vhead
p8066
aVwindchil
p8067
aVwall
p8068
aVfiscal polici
p8069
aVcentral bank target
p8070
aVhike
p8071
aVdear friend
p8072
aVdelight mysteri object
p8073
asS'80767fc8_in'
p8074
(lp8075
Vmalegaon
p8076
aVbombay high court
p8077
aVsapr
p8078
aVnasik district
p8079
aVbail
p8080
aVshrikant prasad purohit
p8081
asS'6e2f7682_in'
p8082
(lp8083
Vschool kid
p8084
aVstudent anusha
p8085
aVuse
p8086
aVsoul kere lake
p8087
aVhsr layout
p8088
aVneil nikhil iyengar
p8089
aVdaili life
p8090
aVwast water manag
p8091
aVrakshan sriniva
p8092
asS'b550781e093416d91c86859b96ad0de5_in'
p8093
(lp8094
Vpowder sesam seed
p8095
aVmixer jar
p8096
asS'95c7fd82_in'
p8097
(lp8098
Vthoma jefferson univers
p8099
aVserver space
p8100
aVresearch
p8101
aVlab
p8102
aVscientif commun
p8103
aVbethann mclaughlin
p8104
aVscienc houston
p8105
aVtim mosca
p8106
aVbrett baker
p8107
asS'57b0d2564e57075b6ef12978358e28b0_in'
p8108
(lp8109
Vpilot
p8110
aVataturk
p8111
aVturkish
p8112
aVlungul
p8113
aVukrainian pilot save
p8114
asS'6f02854f176685f0ad2fbc630a4167b8_in'
p8115
(lp8116
Vthoma
p8117
aVmahogani
p8118
asS'7d5dad32'
p8119
(lp8120
Vciti
p8121
aVhead
p8122
aVwindchil
p8123
aVwall
p8124
aVdear friend
p8125
aVclay hamner
p8126
aVdelight mysteri object
p8127
asS'30e2d71e_in'
p8128
(lp8129
Vextra salt
p8130
aVkiddi seat
p8131
aValex
p8132
aVstomach everytim
p8133
aVminiatur golf cours
p8134
aVbacon
p8135
aVlakesid vacat
p8136
aVeveri fat guy
p8137
aVbeach
p8138
asS'0620e3c2cc05b928dfef2d83ad200f5c_in'
p8139
(lp8140
Vtrade commiss
p8141
aVconsum
p8142
aVfrivol complaint
p8143
aVmulti level market
p8144
aVprotect bill
p8145
asS'ce2624eaa067dd46a8ff41225db5a101_in'
p8146
(lp8147
Vroch
p8148
aVglacier
p8149
aValp
p8150
asS'E_b8a11507'
p8151
(lp8152
Vhead
p8153
aVwindchil
p8154
aVsimilar chemic properti
p8155
aVwall
p8156
aVceleb beauti expert
p8157
aVdear friend
p8158
aVdelight mysteri object
p8159
asS'ad5f1f3a_in'
p8160
(lp8161
Vtruck terminu
p8162
aVtechi
p8163
aVcar
p8164
aVpolic checkpost
p8165
aVyelachenah metro station
p8166
aVraghunanadan raju
p8167
aVcctv footag
p8168
aVdriver
p8169
aVks layout
p8170
asS'fa88e786'
p8171
(lp8172
Vdear friend
p8173
aVwall
p8174
aVhead
p8175
aVwindchil
p8176
aVdelight mysteri object
p8177
asS'fbbfa8b1'
p8178
(lp8179
Vtoxic substanc
p8180
aVfruit juic
p8181
aVhealthi heart
p8182
aVstronger bone
p8183
aVdrink
p8184
aVinner shine
p8185
aVnormal blood pressur
p8186
asS'6f8ad5bc_in'
p8187
(lp8188
Vjunagadh agricultur univers
p8189
aVcotton product estim
p8190
aVsaurashtra ginner associ
p8191
aVpheromon trap
p8192
aVfarmer
p8193
aVmillion hectar
p8194
aVanand popat
p8195
aVnon chemic way
p8196
asS'427bd3d7'
p8197
(lp8198
Vfestiv delici appet
p8199
aVwindchil
p8200
aVwall
p8201
aVhead
p8202
aVsnack food
p8203
aVstore bought mayo
p8204
aVdear friend
p8205
aVdigest heal cumin
p8206
aVdelight mysteri object
p8207
asS'83acdb4b_in'
p8208
(lp8209
Vunit
p8210
aVdelhi
p8211
aVvanshre singh
p8212
asS'9c1753d5_in'
p8213
(lp8214
Vvaluabl credenti
p8215
aVsigma green belt
p8216
aVbusi analysi
p8217
aVoverview
p8218
aVcertifi associ
p8219
aVcomplet knowledg
p8220
aVstandard certif
p8221
asS'e9aa4f4316dbf22de8b083850da40325_in'
p8222
(lp8223
Vstate health depart
p8224
aVmysuru show
p8225
asS'1c565a584342eb57739ec22cc11c17e1_in'
p8226
(lp8227
Vbuddhist cultur
p8228
aVmonasteri templ
p8229
aVheritag
p8230
asS'5e29bb11f2840e39ef7746b08f99e204_in'
p8231
(lp8232
Vsilver eyelin
p8233
aVcolour trend
p8234
aVsummer
p8235
aVmetal lip
p8236
aVberri shade
p8237
aVspring season
p8238
asS'9b4dc8c3'
p8239
(lp8240
Vhead
p8241
aVwindchil
p8242
aVundefin period
p8243
aVwall
p8244
aVbook
p8245
aVdear friend
p8246
aVsyria
p8247
aVdelight mysteri object
p8248
asS'88286231aa4c8b6e759f13d55d782b83_in'
p8249
(lp8250
Vimpuls buy
p8251
aVsean malyon
p8252
aVway
p8253
aVpeter dazeley
p8254
aVblack bean
p8255
aVchines food
p8256
asS'65ab8b56'
p8257
(lp8258
Vhead
p8259
aVwindchil
p8260
aVwall
p8261
aVflu
p8262
aVdear friend
p8263
aVdelight mysteri object
p8264
asS'e9e2591c_in'
p8265
(lp8266
Vhouston
p8267
aVtexa emerg crew
p8268
aVmonster storm
p8269
aVnation weather servic
p8270
aVharvey
p8271
aVheavi wind
p8272
aVrain
p8273
aVflood ravag citi
p8274
asS'17546249f40f15e0fdbf0076a6e3b9b8_in'
p8275
(lp8276
Veffect
p8277
aVmargin
p8278
asS'b68e42ca_in'
p8279
(lp8280
Vvanderbilt hall
p8281
aVorang acryl paint
p8282
aVprint floral carpet
p8283
aVitalian graphic artist
p8284
aVpaula cooper galleri
p8285
asS'6d40145b_in'
p8286
(lp8287
Vdead skin cell
p8288
aVbacn
p8289
aVexcess oil
p8290
aVimag sourc
p8291
aVpopsugar photographi
p8292
aVbackless dress
p8293
aVbodi acn
p8294
aVexfoli weekli
p8295
aVsteam shower
p8296
aVshea moistur 039
p8297
asS'78389b162ce2da3b540f78e31beda857_in'
p8298
(lp8299
Vsuklabaidya
p8300
aVflood damag
p8301
aVhimanta
p8302
aVsever fund crunch
p8303
aVsarma
p8304
asS'038203796f76880cc8eaef39eadd5e6b_in'
p8305
(lp8306
g115
asS'207419665e1efcda8e5f462bb92f3c47_in'
p8307
(lp8308
Vgeograph inform system
p8309
aVcomput scienc
p8310
asS'60b038721a1b95e0699359112c1e0ca4_in'
p8311
(lp8312
Vindia gdp
p8313
aVcustom
p8314
aVinternet traffic
p8315
asS'057e03792942ebf9a2be80b96cad4f25_in'
p8316
(lp8317
Vuniqu opportun
p8318
asS'5213c8337b078d9d342c0a8e65d97f53_in'
p8319
(lp8320
Vwhole level
p8321
aVsilver
p8322
aVmuse
p8323
aVluxuri
p8324
asS'b3699c88'
p8325
(lp8326
Vhead
p8327
aVwindchil
p8328
aVwall
p8329
aVcommand
p8330
aVfighter squadron
p8331
aVdear friend
p8332
aVdefenc releas
p8333
aVdelight mysteri object
p8334
asS'3116cc745337a42b7413f68fd029abff_in'
p8335
(lp8336
Vhsupa
p8337
aVgb
p8338
aVredmi 1s
p8339
aVhsdpa
p8340
asS'89f420a1b19f7429cd579c605ce57d16_in'
p8341
(lp8342
Vboyfriend yuvraj
p8343
asS'f7624cd1929b7c8df990993558547c1f_in'
p8344
(lp8345
Vsanjay gandhi
p8346
aVleopard
p8347
aVattack
p8348
aVtrap
p8349
aVforest depart
p8350
aVboy
p8351
asS'51ef875d0ec9dd3282f36a55396a3701_in'
p8352
(lp8353
Vbail plea
p8354
aVprison offici
p8355
asS'8d44382f_in'
p8356
(lp8357
Vaug
p8358
aVernakulam sree narayana
p8359
aVkozhikod
p8360
aVre examin petit
p8361
aVperinthalmanna
p8362
aVhc
p8363
aVlakh fee
p8364
asS'80b604d2'
p8365
(lp8366
Vhead
p8367
aVwindchil
p8368
aVfloat petal
p8369
aVgrammi nomin album
p8370
aVwall
p8371
aVtwin
p8372
aVdear friend
p8373
aVpregnant belli
p8374
aVdelight mysteri object
p8375
asS'8a179482ca2fb7c2f8125a565fae6d57_in'
p8376
(lp8377
Vminut replac
p8378
aVteam mate
p8379
aVqualifi session
p8380
aVrecord equal pole
p8381
asS'c545e484'
p8382
(lp8383
Vamerican sam querri
p8384
aVwindchil
p8385
aVwall
p8386
aVluxembourg gill muller
p8387
aVhead
p8388
aVdear friend
p8389
aVdelight mysteri object
p8390
asS'7bb2737c_in'
p8391
(lp8392
Vsmall busi websit
p8393
aVsimilar setup option
p8394
aVfront page search
p8395
aVbid amount
p8396
aVclick
p8397
asS'ac69dea1e690c88debc12c6c64318ded_in'
p8398
(lp8399
Vprocess
p8400
aVresearch
p8401
aVhypothalamu
p8402
aVdongsheng cai
p8403
aVmiddl age mice
p8404
asS'eaf5e638365bdda223f0210b26afe246_in'
p8405
(lp8406
Vleeco
p8407
aVgb ramexpand
p8408
aVnote 3
p8409
aVmm
p8410
aVtouch focu
p8411
aVmicro sim
p8412
aVxiaomi redmi
p8413
aVa8
p8414
asS'7d940d32_in'
p8415
(lp8416
Vtottenham hotspur
p8417
aVwrexham
p8418
aVqueen park ranger
p8419
aVnon leagu footbal
p8420
aVcrystal palac
p8421
aVclub
p8422
aVobviou parallel
p8423
asS'9970621075ac6a77db535bb21adc6edb_in'
p8424
(lp8425
Vlipstick
p8426
aVburkha
p8427
aVfeminist
p8428
aVbuaji
p8429
aVpatriarchi
p8430
aVwomen
p8431
asS'decd85dd_in'
p8432
(lp8433
Vpolic
p8434
aVdental implant option
p8435
aVla rambla
p8436
aVfake explos belt
p8437
aVthursday attack
p8438
aVspanish
p8439
aVgener enquiri
p8440
aVsubirat
p8441
asS'c0c3c2a81b98bf94aea691829283a368_in'
p8442
(lp8443
Vmadra cricket
p8444
aVindian court
p8445
aVwomen photograph
p8446
asS'3593189b9fe11397a43e25ec68de4f1d_in'
p8447
(lp8448
Vstudent scheme
p8449
aVcampu surviv kit
p8450
aVvodafon india delhi
p8451
aVoffer
p8452
ag115
aVunlimit call
p8453
asS'8b533071_in'
p8454
(lp8455
Vreveng
p8456
aVwhose genit
p8457
aVbail
p8458
aVyoung woman
p8459
aVself defenc
p8460
asS'3ff22f530cb33d343e1582089386b74c_in'
p8461
(lp8462
Vbluish
p8463
asS'43cc352b_in'
p8464
(lp8465
Vextern trade deal
p8466
aVbrexit
p8467
aVbritish
p8468
aVunit kingdom
p8469
aVpm theresa
p8470
aVeu
p8471
asS'2e33e084'
p8472
(lp8473
Vhead
p8474
aVtrend watch
p8475
aVwindchil
p8476
aVwall
p8477
aVcomfiest pair
p8478
aVkiss weekend morn
p8479
aVradar shop
p8480
aVdear friend
p8481
aVdelight mysteri object
p8482
asS'7b5d6b78f1a707979bac55d3dc68f3b0_in'
p8483
(lp8484
Vchina
p8485
aVxinhua news agenc
p8486
aVevacu
p8487
aVocean
p8488
asS'b7a477a06004f78e57b4b336f35cf978_in'
p8489
(lp8490
Vplant
p8491
aVlearnt
p8492
aVcareer
p8493
aVanti viral remedi
p8494
aVmistak
p8495
aVbrocad
p8496
asS'b2d00aab'
p8497
(lp8498
Vhead
p8499
ag115
aVwindchil
p8500
aVwall
p8501
aVill fate ldr
p8502
aVbest way
p8503
aVdear friend
p8504
aVdelight mysteri object
p8505
asS'2a51b7e57e67489bfbadf176ef4f4b7a_in'
p8506
(lp8507
Vvasool releas date
p8508
aVpaisa
p8509
asS'c969f96d789856b44abddaab07ea420b_in'
p8510
(lp8511
Vformer bjp
p8512
asS'5aab9d0ce2640f67af3f5b94da319b7d_in'
p8513
(lp8514
Vislamist gunmen
p8515
aVsouthern
p8516
aVphilippin battl
p8517
aVsecur minist
p8518
asS'024fd4e3b85e0a7d105e2e16d9b11d9c_in'
p8519
(lp8520
Vrimmel brow
p8521
aVminim oil
p8522
aVliquid powder formula
p8523
aVsephora
p8524
ag115
aVmakeup set spray
p8525
asS'4465785d_in'
p8526
(lp8527
Vagha baqir rizvi
p8528
aVhigher secondari school
p8529
aVsepar packag
p8530
aVtourism market
p8531
aVpanikhar kishtwar road
p8532
aVchief minist
p8533
aVhaji anayat ali
p8534
asS'883c5763573aa461166b49a3ca32d368_in'
p8535
(lp8536
Vfresh cherri
p8537
aVincontext
p8538
aVshopper
p8539
aVwiedmey
p8540
aVpie frozen fruit
p8541
aVbake
p8542
aVricher hydrat dough
p8543
aVsignag
p8544
asS'1a8d5f7dc5d094624702ec6b28457d6f_in'
p8545
(lp8546
Vwhite gown
p8547
aVmale model
p8548
aVcollect
p8549
aVtree
p8550
asS'12b0b567a83fa3ad64b5a13bf65640e4_in'
p8551
(lp8552
sS'deeb629514227a9d74c0fd7fcdead9ff_in'
p8553
(lp8554
Vstate ocean administr
p8555
aVsaturday noon
p8556
aVtorrenti rain
p8557
asS'b2d03d4e'
p8558
(lp8559
Vhead
p8560
aVwindchil
p8561
ag115
aVwall
p8562
aVdear friend
p8563
aVdelight mysteri object
p8564
asS'bc212aebbf6b672b424fe4f30bd7bd75_in'
p8565
(lp8566
Vcop
p8567
aVworst movi
p8568
aVtrailer
p8569
ag115
aVbutler
p8570
aVcop
p8571
asS'38001588b9ca060503e64835e8c85da9_in'
p8572
(lp8573
Vforest area
p8574
aVpoach
p8575
asS'10f10d68_in'
p8576
(lp8577
Vsecondari sensor
p8578
aVfuntouch os
p8579
aVfocuss smartphon
p8580
aVdual camera
p8581
aVplu variant
p8582
aVfront
p8583
aVleak poster
p8584
aVqualcomm snapdragon
p8585
asS'ab23da5db3e4df325435599da6c400d8_in'
p8586
(lp8587
Vsurrealist
p8588
aVimprint
p8589
aVkhaitan
p8590
aVoffbeat
p8591
asS'6b32ebbe'
p8592
(lp8593
Vhead
p8594
aVmulti purpos helicopt
p8595
aVwall
p8596
aVmilitari high command
p8597
aVfemal sergeant major
p8598
aVwindchil
p8599
aVdear friend
p8600
aVdelight mysteri object
p8601
asS'90547de4'
p8602
(lp8603
Vhead
p8604
aVwindchil
p8605
aVwall
p8606
aVdear friend
p8607
aVancient town
p8608
aVdelight mysteri object
p8609
asS'6f98fa8'
p8610
(lp8611
Vhead
p8612
aVwindchil
p8613
aVpartli cloudi weather
p8614
aVchanc
p8615
aVlow pressur
p8616
aVwall
p8617
aVscatter rain
p8618
aVdear friend
p8619
aVdelight mysteri object
p8620
asS'26ca8674919d138c6af38a0f5d8cbd27_in'
p8621
(lp8622
Vrandi bresnik
p8623
aVastronaut arriv
p8624
aVlow earth orbit
p8625
aVexpedit
p8626
aVearth scienc
p8627
asS'23545e3622183c017f77c0d828459ff7_in'
p8628
(lp8629
Vmbp
p8630
aVgb storag
p8631
aVasu
p8632
aVkbpsyesedgeyesclass 12yes3gdc hsdpa
p8633
aVface smile detect
p8634
aVtouch focu
p8635
aVlcd capacit touchscreen
p8636
asS'a7ee6ae7_in'
p8637
(lp8638
Vwaikiki
p8639
aVde la roca
p8640
aVwonder idea
p8641
aVparadis beach
p8642
aVperfect day trip
p8643
aVcerveza beer water
p8644
aVcosta dorada
p8645
asS'680be6f5_in'
p8646
(lp8647
Vstreet
p8648
aVwhose photo
p8649
aVraghu rai
p8650
aVdelhi
p8651
aVvivian maier
p8652
aVway
p8653
aVunequ promis
p8654
asS'2fc0211de8f567e3012be0d829115b04_in'
p8655
(lp8656
Vneet ug
p8657
aVmistak
p8658
aVallot
p8659
aVkea
p8660
aVindian sari
p8661
asS'34d286da956c1a1a64b13c8dd7480d2e_in'
p8662
(lp8663
Vcraziest way
p8664
aVair fri
p8665
aVrevis
p8666
aVident
p8667
aVcook bacon
p8668
asS'f829ca50_in'
p8669
(lp8670
Vstart weight
p8671
aVbodi fat loss
p8672
aVdiffer diet
p8673
aVpinay beauti queen
p8674
aVeat habit
p8675
aVpageant world
p8676
aVleigh guda
p8677
aVeveri workout
p8678
asS'c3a33320a14a286baa3f939ed36fcabf_in'
p8679
(lp8680
Vcc version
p8681
aVadventur tourer
p8682
aVshirish kulkarni
p8683
aVindia
p8684
asS'ad0bc7b2'
p8685
(lp8686
Vice cream sandwich
p8687
aVgeo tag
p8688
aVli ion batteri
p8689
aVqualcomm msm8960 snapdragon
p8690
aVwi fi direct
p8691
aVgb
p8692
aVquad core ghz
p8693
aVip lcd
p8694
aVsimilar
p8695
asS'a4d274ff'
p8696
(lp8697
Vhead
p8698
aVhit film
p8699
aVwindchil
p8700
aVentertain actor
p8701
aVwall
p8702
aVdear friend
p8703
aVinspir
p8704
aVdelight mysteri object
p8705
asS'29e5123_in'
p8706
(lp8707
Vkae capit
p8708
aVintermediari liabil
p8709
aVbusi
p8710
aVself fund compani
p8711
asS'a6d9982d_in'
p8712
(lp8713
Vsolo supplement
p8714
aVthing
p8715
aVsurprisingli divis way
p8716
aVbetter travel
p8717
aVsingl
p8718
aVlocal languag
p8719
aVmani vacat compani
p8720
aVspecial smaller room
p8721
aVanyon
p8722
aVcruis line
p8723
asS'cfe3682a7e43101db8376f00841c46ed_in'
p8724
(lp8725
Vurg
p8726
asS'8df1a9d3cc5cacce408d2c495e0b84df_in'
p8727
(lp8728
Vpaid week
p8729
aVleav polici
p8730
aVprimari caregiv respons
p8731
aVmillenni employe
p8732
aVwin parent
p8733
asS'7e18bd9a_in'
p8734
(lp8735
Vregular establish survey
p8736
aVgreater access
p8737
aVdata gener
p8738
aVgender indic
p8739
aVstatist fratern
p8740
asS'19e0d0c7c21b5ec4a84d5be277b91fa3_in'
p8741
(lp8742
Vdeath
p8743
aVasset
p8744
aVreconstruct
p8745
aVpolic offic
p8746
aVpe
p8747
asS'5cd90f7c_in'
p8748
(lp8749
Vvital sign
p8750
aVprayer
p8751
aVtwitter follow
p8752
aVriski procedur
p8753
aVamerican actress
p8754
aVwashington veterinari hospit
p8755
asS'c1c4c2eb'
p8756
(lp8757
Vhead
p8758
aVwindchil
p8759
aVjaipur
p8760
aVwall
p8761
aVstationari water tanker
p8762
aVdear friend
p8763
aVdelight mysteri object
p8764
asS'c1ee413e_in'
p8765
(lp8766
Vmoistur deplet
p8767
aVfacial massag
p8768
aVpre shave routin
p8769
aVrejuven effect
p8770
aVshahnaz husain
p8771
aVtip
p8772
asS'e396e59f_in'
p8773
(lp8774
Vnh
p8775
aVcentr
p8776
aVkm length
p8777
aVgomti udaipur section
p8778
aVlakh crore
p8779
aVvariou road project
p8780
asS'5298b274_in'
p8781
(lp8782
Vorigin
p8783
aVlife
p8784
aVbiolog process
p8785
aVthermodynam
p8786
aVnon equilibrium system
p8787
aVnatur self organ
p8788
aVjeremi england
p8789
aVotherwis lifeless chemic
p8790
aVphysic
p8791
aVearth
p8792
asS'8bed2d43_in'
p8793
(lp8794
Vcampaign
p8795
aVbrand
p8796
aVshare
p8797
aVminut video highlight
p8798
aVtraffic congest
p8799
aVroad
p8800
aVflak
p8801
asS'b99f7e88'
p8802
(lp8803
Vtreetop nest
p8804
aVhead
p8805
aVwindchil
p8806
aVwall
p8807
aVrs10 500
p8808
aVdear friend
p8809
aVdelight mysteri object
p8810
asS'265bb3c5_in'
p8811
(lp8812
Vspecial silver paint
p8813
aVxdrive
p8814
aVcompetit edit
p8815
aVsquadron sinist
p8816
aVprototyp drive
p8817
aVdrifti video
p8818
aVteaser come tomorrow
p8819
aVm6 coup power
p8820
aVawd
p8821
asS'57d7d639_in'
p8822
(lp8823
Vjunior engin
p8824
aVemploye
p8825
aVtrack mainten personnel
p8826
aVcoach
p8827
aVgangmen
p8828
aVderail
p8829
asS'70e0857d553346a854a8bdb9152fadf7_in'
p8830
(lp8831
Vbirth babi
p8832
aVinflen
p8833
aVexclus tesla model
p8834
aVsuperstit
p8835
aVurshita
p8836
asS'c5a00e33_in'
p8837
(lp8838
Vappl team
p8839
aVchines
p8840
aVapp store
p8841
aVaccept payment
p8842
aVchina wechat
p8843
aVagreement
p8844
aVlead platform
p8845
aVapplic
p8846
aVtencent
p8847
asS'd5ed22ddfa33444cff48af18465597a4_in'
p8848
(lp8849
Vexam
p8850
aVsslc
p8851
aVlast impress
p8852
aVticket
p8853
aVdress
p8854
aVhall
p8855
asS'ffc17f891185446f0ff07fa9fe41cb2c_in'
p8856
(lp8857
Vsuspici activ
p8858
aVpolic commission
p8859
aVamulya patnaik
p8860
aValert
p8861
asS'6ceb83d7_in'
p8862
(lp8863
Vhitech corpor q1
p8864
aVindiabul real estat
p8865
aVnifti august futur
p8866
aVminda industri
p8867
aVbse
p8868
aVstock
p8869
aVpercent lakh
p8870
asS'fb81b39_in'
p8871
(lp8872
Vshruti seth
p8873
aVbiwi
p8874
aVtv
p8875
aVkaran veer mehra
p8876
aVtroubl maker
p8877
aVpriya
p8878
aVmain
p8879
asS'c3876615fc10a718141f7fec88576f17_in'
p8880
(lp8881
Vbackcountri
p8882
asS'81aca68b'
p8883
(lp8884
Vhead
p8885
aVwindchil
p8886
aVwall
p8887
aVglobal sale
p8888
aVpasseng vehicl categori
p8889
aVunit
p8890
aVdear friend
p8891
aVdelight mysteri object
p8892
asS'a77bcfa3_in'
p8893
(lp8894
Vwear white
p8895
aVrule
p8896
aVflatter garment
p8897
aVmulti tone dress
p8898
aVparticular style pattern
p8899
aVwater colour print
p8900
aVflimsi fabric
p8901
aVbaggi jean
p8902
aVasymmetr stripe
p8903
asS'7d528b68_in'
p8904
(lp8905
Vsenior
p8906
aVtv
p8907
aVnih aarp diet
p8908
aVweekli physic activ
p8909
aVstudi particip
p8910
aVcross section analysi
p8911
asS'8031568f718c4c241b7fa6e9523869e7_in'
p8912
(lp8913
Vremain
p8914
aVcrash
p8915
aVplane crash
p8916
aVpasseng
p8917
asS'27bb8ca9_in'
p8918
(lp8919
Vcaricatur artist
p8920
aVtradit yakshagana theatr
p8921
aVterracotta jewelleri
p8922
aVeco friendli product
p8923
asS'4273e8a_in'
p8924
(lp8925
Vorigin
p8926
aVmaroon
p8927
aVwavel sport high
p8928
aVnrl telstra premiership
p8929
aVstate
p8930
aVqueensland
p8931
aVnsw
p8932
asS'9401d3dd'
p8933
(lp8934
Vhead
p8935
aVnasa blog
p8936
aVwindchil
p8937
aVwall
p8938
aVdear friend
p8939
aVdelight mysteri object
p8940
asS'3b5132caa8aed41e275759ca0e59681a_in'
p8941
(lp8942
Vbest cook
p8943
aVyoull retain
p8944
aVfood prepar method
p8945
asS'8c72d875_in'
p8946
(lp8947
Vricketi power infrastructur
p8948
aVchines
p8949
aVbenu river
p8950
aVexport import bank
p8951
aVcontract
p8952
aVconstruct
p8953
aVabuja
p8954
asS'e440c4a6'
p8955
(lp8956
Vbulgur
p8957
aVchar sweet potato
p8958
aVsupersmooth textur
p8959
aVfresh way
p8960
aVbarbecu sauc
p8961
aVpleasant vinegar tang
p8962
aVtartlet
p8963
aVtart
p8964
asS'6a83477d2e3f0852bf46f63b308d37da_in'
p8965
(lp8966
Vpolic depart
p8967
aVelig criteria
p8968
aVsuffolk counti
p8969
aVgovt
p8970
aVsuspect
p8971
aVfireman ministri defenc
p8972
asS'8954c496'
p8973
(lp8974
Vhead
p8975
aVwindchil
p8976
aVwall
p8977
aVbath
p8978
aVdear friend
p8979
aVfemal doctor
p8980
aVlakh
p8981
aVdelight mysteri object
p8982
asS'e5093f54'
p8983
(lp8984
Vhead
p8985
aVeast chch ambul
p8986
aVwindchil
p8987
aVwall
p8988
aVdear friend
p8989
aVdelight mysteri object
p8990
asS'1be1ad14_in'
p8991
(lp8992
Vchines
p8993
aVunexpect quarterli loss
p8994
aVmotorola smartphon busi
p8995
aVglobal technolog stage
p8996
aVequiti bubbl
p8997
aVway bet
p8998
aVhong kong
p8999
asS'06ade7cac3120b5583c917df3dc43f9b_in'
p9000
(lp9001
Vneuropathi market
p9002
aVpharmaceut player
p9003
aVnovel drug
p9004
aVpatient popul
p9005
aVdiabet
p9006
asS'b56a4daa_in'
p9007
(lp9008
Vwarn
p9009
aVgeopolit risk
p9010
aVpreviou percent
p9011
aVnguyen xuan phuc
p9012
aVchina forecast
p9013
aVgdp growth
p9014
aVmoodi
p9015
as.